	.file	"value.cpp"
	.weakref	_Z20__gthrw_pthread_oncePiPFvvE,pthread_once
	.weakref	_Z26__gthrw_pthread_key_createPjPFvPvE,pthread_key_create
	.weakref	_Z26__gthrw_pthread_key_deletej,pthread_key_delete
	.weakref	_Z27__gthrw_pthread_getspecificj,pthread_getspecific
	.weakref	_Z27__gthrw_pthread_setspecificjPKv,pthread_setspecific
	.weakref	_Z22__gthrw_pthread_createPmPK16__pthread_attr_sPFPvS3_ES3_,pthread_create
	.weakref	_Z26__gthrw_pthread_mutex_lockP15pthread_mutex_t,pthread_mutex_lock
	.weakref	_Z29__gthrw_pthread_mutex_trylockP15pthread_mutex_t,pthread_mutex_trylock
	.weakref	_Z28__gthrw_pthread_mutex_unlockP15pthread_mutex_t,pthread_mutex_unlock
	.weakref	_Z30__gthrw_pthread_mutexattr_initP19pthread_mutexattr_t,pthread_mutexattr_init
	.weakref	_Z33__gthrw_pthread_mutexattr_settypeP19pthread_mutexattr_ti,pthread_mutexattr_settype
	.weakref	_Z33__gthrw_pthread_mutexattr_destroyP19pthread_mutexattr_t,pthread_mutexattr_destroy
	.weakref	_Z26__gthrw_pthread_mutex_initP15pthread_mutex_tPK19pthread_mutexattr_t,pthread_mutex_init
	.text
	.align 2
	.type	_ZSt17__verify_groupingPKcmRKSs, @function
_ZSt17__verify_groupingPKcmRKSs:
.LFB1361:
	pushq	%rbp
.LCFI0:
	movq	%rsp, %rbp
.LCFI1:
	subq	$80, %rsp
.LCFI2:
	movq	%rdi, -8(%rbp)
	movq	%rsi, -16(%rbp)
	movq	%rdx, -24(%rbp)
	movq	-24(%rbp), %rdi
	call	_ZNKSs4sizeEv
	decq	%rax
	movq	%rax, -32(%rbp)
	movq	-16(%rbp), %rax
	decq	%rax
	movq	%rax, -48(%rbp)
	leaq	-48(%rbp), %rsi
	leaq	-32(%rbp), %rdi
	call	_ZSt3minImERKT_S2_S2_
	movq	(%rax), %rax
	movq	%rax, -40(%rbp)
	movq	-32(%rbp), %rax
	movq	%rax, -56(%rbp)
	movb	$1, -57(%rbp)
	movq	$0, -72(%rbp)
.L2:
	movq	-72(%rbp), %rax
	cmpq	-40(%rbp), %rax
	jae	.L5
	cmpb	$0, -57(%rbp)
	je	.L5
	movq	-56(%rbp), %rsi
	movq	-24(%rbp), %rdi
	call	_ZNKSsixEm
	movsbl	(%rax),%edx
	movq	-72(%rbp), %rax
	addq	-8(%rbp), %rax
	movsbl	(%rax),%eax
	cmpl	%eax, %edx
	sete	%al
	movb	%al, -57(%rbp)
	leaq	-56(%rbp), %rax
	decq	(%rax)
	leaq	-72(%rbp), %rax
	incq	(%rax)
	jmp	.L2
.L5:
	cmpq	$0, -56(%rbp)
	je	.L6
	cmpb	$0, -57(%rbp)
	je	.L6
	movq	-56(%rbp), %rsi
	movq	-24(%rbp), %rdi
	call	_ZNKSsixEm
	movsbl	(%rax),%edx
	movq	-40(%rbp), %rax
	addq	-8(%rbp), %rax
	movsbl	(%rax),%eax
	cmpl	%eax, %edx
	sete	%al
	movb	%al, -57(%rbp)
	leaq	-56(%rbp), %rax
	decq	(%rax)
	jmp	.L5
.L6:
	movq	-24(%rbp), %rdi
	movl	$0, %esi
	call	_ZNKSsixEm
	movsbl	(%rax),%edx
	movq	-40(%rbp), %rax
	addq	-8(%rbp), %rax
	movsbl	(%rax),%eax
	cmpl	%eax, %edx
	jg	.L8
	movzbl	-57(%rbp), %eax
	andl	$1, %eax
	movb	%al, -73(%rbp)
	jmp	.L9
.L8:
	movb	$0, -73(%rbp)
.L9:
	movzbl	-73(%rbp), %eax
	movb	%al, -57(%rbp)
	movzbl	-57(%rbp), %eax
	leave
	ret
.LFE1361:
	.size	_ZSt17__verify_groupingPKcmRKSs, .-_ZSt17__verify_groupingPKcmRKSs
	.local	_ZSt8__ioinit
	.comm	_ZSt8__ioinit,1,1
	.local	buf
	.comm	buf,1048576,32
	.local	g_gc
	.comm	g_gc,56,32
	.local	g_root
	.comm	g_root,96,32
	.section	.rodata
.LC0:
	.string	"----------------------------"
.LC1:
	.string	"\n"
	.text
	.align 2
.globl _ZN5Value7ShowAllEv
	.type	_ZN5Value7ShowAllEv, @function
_ZN5Value7ShowAllEv:
.LFB1940:
	pushq	%rbp
.LCFI3:
	movq	%rsp, %rbp
.LCFI4:
	movl	$.LC0, %esi
	movl	$_ZSt4cout, %edi
	call	_ZStlsISt11char_traitsIcEERSt13basic_ostreamIcT_ES5_PKc
	movq	%rax, %rdi
	movl	$_ZSt4endlIcSt11char_traitsIcEERSt13basic_ostreamIT_T0_ES6_, %esi
	call	_ZNSolsEPFRSoS_E
	movl	$g_root, %esi
	movl	$g_gc, %edi
	call	_ZN2GC11ShowAllVarsEP5Value
	movl	$.LC1, %esi
	movl	$_ZSt4cout, %edi
	call	_ZStlsISt11char_traitsIcEERSt13basic_ostreamIcT_ES5_PKc
	movq	%rax, %rdi
	movl	$_ZSt4endlIcSt11char_traitsIcEERSt13basic_ostreamIT_T0_ES6_, %esi
	call	_ZNSolsEPFRSoS_E
	leave
	ret
.LFE1940:
	.size	_ZN5Value7ShowAllEv, .-_ZN5Value7ShowAllEv
	.section	.rodata
.LC2:
	.string	"--------------------------"
.LC3:
	.string	"--------------------------\n"
	.text
	.align 2
.globl _ZN5Value10DebugPrintEv
	.type	_ZN5Value10DebugPrintEv, @function
_ZN5Value10DebugPrintEv:
.LFB1941:
	pushq	%rbp
.LCFI5:
	movq	%rsp, %rbp
.LCFI6:
	subq	$16, %rsp
.LCFI7:
	movq	%rdi, -8(%rbp)
	movl	$.LC2, %esi
	movl	$_ZSt4cout, %edi
	call	_ZStlsISt11char_traitsIcEERSt13basic_ostreamIcT_ES5_PKc
	movq	%rax, %rdi
	movl	$_ZSt4endlIcSt11char_traitsIcEERSt13basic_ostreamIT_T0_ES6_, %esi
	call	_ZNSolsEPFRSoS_E
	movq	-8(%rbp), %rsi
	movl	$g_gc, %edi
	call	_ZN2GC10DebugPrintEP5Value
	movl	$.LC3, %esi
	movl	$_ZSt4cout, %edi
	call	_ZStlsISt11char_traitsIcEERSt13basic_ostreamIcT_ES5_PKc
	movq	%rax, %rdi
	movl	$_ZSt4endlIcSt11char_traitsIcEERSt13basic_ostreamIT_T0_ES6_, %esi
	call	_ZNSolsEPFRSoS_E
	leave
	ret
.LFE1941:
	.size	_ZN5Value10DebugPrintEv, .-_ZN5Value10DebugPrintEv
	.section	.rodata
	.align 16
	.type	_ZZN5Value4CallEPS_E19__PRETTY_FUNCTION__, @object
	.size	_ZZN5Value4CallEPS_E19__PRETTY_FUNCTION__, 27
_ZZN5Value4CallEPS_E19__PRETTY_FUNCTION__:
	.string	"Value* Value::Call(Value*)"
.LC4:
	.string	"value.cpp"
.LC5:
	.string	"params->type == FUNC"
	.text
	.align 2
.globl _ZN5Value4CallEPS_
	.type	_ZN5Value4CallEPS_, @function
_ZN5Value4CallEPS_:
.LFB1942:
	pushq	%rbp
.LCFI8:
	movq	%rsp, %rbp
.LCFI9:
	subq	$16, %rsp
.LCFI10:
	movq	%rdi, -8(%rbp)
	movq	%rsi, -16(%rbp)
	movq	-16(%rbp), %rax
	cmpl	$4, (%rax)
	je	.L14
	movl	$_ZZN5Value4CallEPS_E19__PRETTY_FUNCTION__, %ecx
	movl	$19, %edx
	movl	$.LC4, %esi
	movl	$.LC5, %edi
	call	__assert_fail
.L14:
	movq	-16(%rbp), %rsi
	movq	-8(%rbp), %rax
	movq	88(%rax), %rdi
	call	_ZN8Function3RunEP5Value
	leave
	ret
.LFE1942:
	.size	_ZN5Value4CallEPS_, .-_ZN5Value4CallEPS_
.globl _Unwind_Resume
	.section	.rodata
.LC6:
	.string	"nil"
.LC7:
	.string	"number<"
.LC8:
	.string	">"
.LC9:
	.string	"string<"
.LC10:
	.string	"hash:"
.LC11:
	.string	"ref<"
.LC12:
	.string	"function<"
.LC13:
	.string	"unknown"
	.text
	.align 2
.globl _ZN5Value8ToStringEv
	.type	_ZN5Value8ToStringEv, @function
_ZN5Value8ToStringEv:
.LFB1943:
	pushq	%rbp
.LCFI11:
	movq	%rsp, %rbp
.LCFI12:
	pushq	%rbx
.LCFI13:
	subq	$104, %rsp
.LCFI14:
	movq	%rdi, -72(%rbp)
	movq	%rsi, -24(%rbp)
	movq	-24(%rbp), %rax
	movq	%rax, -88(%rbp)
	movq	-88(%rbp), %rdx
	cmpl	$5, (%rdx)
	ja	.L59
	movq	-88(%rbp), %rdx
	mov	(%rdx), %eax
	movq	.L64(,%rax,8), %rax
	jmp	*%rax
	.section	.rodata
	.align 8
	.align 4
.L64:
	.quad	.L22
	.quad	.L31
	.quad	.L36
	.quad	.L45
	.quad	.L54
	.quad	.L17
	.text
.L17:
	leaq	-48(%rbp), %rdi
	call	_ZNSaIcEC1Ev
	leaq	-48(%rbp), %rdx
	movl	$.LC6, %esi
	movq	-72(%rbp), %rdi
.LEHB0:
	call	_ZNSsC1EPKcRKSaIcE
.LEHE0:
	leaq	-48(%rbp), %rdi
	call	_ZNSaIcED1Ev
	jmp	.L15
.L74:
	movq	%rax, -80(%rbp)
.L18:
	movq	-80(%rbp), %rbx
	leaq	-48(%rbp), %rdi
	call	_ZNSaIcED1Ev
	movq	%rbx, -80(%rbp)
.L20:
	movq	-80(%rbp), %rdi
.LEHB1:
	call	_Unwind_Resume
.L22:
	leaq	-48(%rbp), %rbx
	leaq	-64(%rbp), %rdi
	movq	-24(%rbp), %rax
	movq	8(%rax), %rax
	movq	%rax, -104(%rbp)
	movlpd	-104(%rbp), %xmm0
	call	_ZN4Util8ToStringEd
.LEHE1:
	leaq	-64(%rbp), %rdx
	movl	$.LC7, %esi
	movq	%rbx, %rdi
.LEHB2:
	call	_ZStplIcSt11char_traitsIcESaIcEESbIT_T0_T1_EPKS3_RKS6_
.LEHE2:
	leaq	-48(%rbp), %rsi
	movl	$.LC8, %edx
	movq	-72(%rbp), %rdi
.LEHB3:
	call	_ZStplIcSt11char_traitsIcESaIcEESbIT_T0_T1_ERKS6_PKS3_
.LEHE3:
	leaq	-48(%rbp), %rdi
.LEHB4:
	call	_ZNSsD1Ev
.LEHE4:
	leaq	-64(%rbp), %rdi
.LEHB5:
	call	_ZNSsD1Ev
.LEHE5:
	jmp	.L15
.L72:
	movq	%rax, -80(%rbp)
.L23:
	movq	-80(%rbp), %rbx
	leaq	-48(%rbp), %rdi
	call	_ZNSsD1Ev
	movq	%rbx, -80(%rbp)
.L25:
	jmp	.L27
.L73:
	movq	%rax, -80(%rbp)
.L27:
	movq	-80(%rbp), %rbx
	leaq	-64(%rbp), %rdi
	call	_ZNSsD1Ev
	movq	%rbx, -80(%rbp)
.L29:
	movq	-80(%rbp), %rdi
.LEHB6:
	call	_Unwind_Resume
.L31:
	leaq	-64(%rbp), %rdi
	movq	-24(%rbp), %rdx
	addq	$16, %rdx
	movl	$.LC9, %esi
	call	_ZStplIcSt11char_traitsIcESaIcEESbIT_T0_T1_EPKS3_RKS6_
.LEHE6:
	leaq	-64(%rbp), %rsi
	movl	$.LC8, %edx
	movq	-72(%rbp), %rdi
.LEHB7:
	call	_ZStplIcSt11char_traitsIcESaIcEESbIT_T0_T1_ERKS6_PKS3_
.LEHE7:
	leaq	-64(%rbp), %rdi
.LEHB8:
	call	_ZNSsD1Ev
.LEHE8:
	jmp	.L15
.L71:
	movq	%rax, -80(%rbp)
.L32:
	movq	-80(%rbp), %rbx
	leaq	-64(%rbp), %rdi
	call	_ZNSsD1Ev
	movq	%rbx, -80(%rbp)
.L34:
	movq	-80(%rbp), %rdi
.LEHB9:
	call	_Unwind_Resume
.L36:
	leaq	-64(%rbp), %rbx
	leaq	-48(%rbp), %rdi
	movq	-24(%rbp), %rsi
	call	_ZN4Util8ToStringEPv
.LEHE9:
	leaq	-48(%rbp), %rdx
	movl	$.LC10, %esi
	movq	%rbx, %rdi
.LEHB10:
	call	_ZStplIcSt11char_traitsIcESaIcEESbIT_T0_T1_EPKS3_RKS6_
.LEHE10:
	leaq	-64(%rbp), %rsi
	movl	$.LC8, %edx
	movq	-72(%rbp), %rdi
.LEHB11:
	call	_ZStplIcSt11char_traitsIcESaIcEESbIT_T0_T1_ERKS6_PKS3_
.LEHE11:
	leaq	-64(%rbp), %rdi
.LEHB12:
	call	_ZNSsD1Ev
.LEHE12:
	leaq	-48(%rbp), %rdi
.LEHB13:
	call	_ZNSsD1Ev
.LEHE13:
	jmp	.L15
.L69:
	movq	%rax, -80(%rbp)
.L37:
	movq	-80(%rbp), %rbx
	leaq	-64(%rbp), %rdi
	call	_ZNSsD1Ev
	movq	%rbx, -80(%rbp)
.L39:
	jmp	.L41
.L70:
	movq	%rax, -80(%rbp)
.L41:
	movq	-80(%rbp), %rbx
	leaq	-48(%rbp), %rdi
	call	_ZNSsD1Ev
	movq	%rbx, -80(%rbp)
.L43:
	movq	-80(%rbp), %rdi
.LEHB14:
	call	_Unwind_Resume
.L45:
	leaq	-64(%rbp), %rbx
	leaq	-48(%rbp), %rdi
	movq	-24(%rbp), %rax
	movq	72(%rax), %rsi
	call	_ZN4Util8ToStringEPv
.LEHE14:
	leaq	-48(%rbp), %rdx
	movl	$.LC11, %esi
	movq	%rbx, %rdi
.LEHB15:
	call	_ZStplIcSt11char_traitsIcESaIcEESbIT_T0_T1_EPKS3_RKS6_
.LEHE15:
	leaq	-64(%rbp), %rsi
	movl	$.LC8, %edx
	movq	-72(%rbp), %rdi
.LEHB16:
	call	_ZStplIcSt11char_traitsIcESaIcEESbIT_T0_T1_ERKS6_PKS3_
.LEHE16:
	leaq	-64(%rbp), %rdi
.LEHB17:
	call	_ZNSsD1Ev
.LEHE17:
	leaq	-48(%rbp), %rdi
.LEHB18:
	call	_ZNSsD1Ev
.LEHE18:
	jmp	.L15
.L67:
	movq	%rax, -80(%rbp)
.L46:
	movq	-80(%rbp), %rbx
	leaq	-64(%rbp), %rdi
	call	_ZNSsD1Ev
	movq	%rbx, -80(%rbp)
.L48:
	jmp	.L50
.L68:
	movq	%rax, -80(%rbp)
.L50:
	movq	-80(%rbp), %rbx
	leaq	-48(%rbp), %rdi
	call	_ZNSsD1Ev
	movq	%rbx, -80(%rbp)
.L52:
	movq	-80(%rbp), %rdi
.LEHB19:
	call	_Unwind_Resume
.L54:
	leaq	-64(%rbp), %rdi
	movq	-24(%rbp), %rax
	movq	88(%rax), %rdx
	movl	$.LC12, %esi
	call	_ZStplIcSt11char_traitsIcESaIcEESbIT_T0_T1_EPKS3_RKS6_
.LEHE19:
	leaq	-64(%rbp), %rsi
	movl	$.LC8, %edx
	movq	-72(%rbp), %rdi
.LEHB20:
	call	_ZStplIcSt11char_traitsIcESaIcEESbIT_T0_T1_ERKS6_PKS3_
.LEHE20:
	leaq	-64(%rbp), %rdi
.LEHB21:
	call	_ZNSsD1Ev
.LEHE21:
	jmp	.L15
.L66:
	movq	%rax, -80(%rbp)
.L55:
	movq	-80(%rbp), %rbx
	leaq	-64(%rbp), %rdi
	call	_ZNSsD1Ev
	movq	%rbx, -80(%rbp)
.L57:
	movq	-80(%rbp), %rdi
.LEHB22:
	call	_Unwind_Resume
.LEHE22:
.L59:
	leaq	-64(%rbp), %rdi
	call	_ZNSaIcEC1Ev
	leaq	-64(%rbp), %rdx
	movl	$.LC13, %esi
	movq	-72(%rbp), %rdi
.LEHB23:
	call	_ZNSsC1EPKcRKSaIcE
.LEHE23:
	leaq	-64(%rbp), %rdi
	call	_ZNSaIcED1Ev
	jmp	.L15
.L65:
	movq	%rax, -80(%rbp)
.L60:
	movq	-80(%rbp), %rbx
	leaq	-64(%rbp), %rdi
	call	_ZNSaIcED1Ev
	movq	%rbx, -80(%rbp)
.L62:
	movq	-80(%rbp), %rdi
.LEHB24:
	call	_Unwind_Resume
.LEHE24:
.L15:
	movq	-72(%rbp), %rax
	addq	$104, %rsp
	popq	%rbx
	leave
	ret
.LFE1943:
	.size	_ZN5Value8ToStringEv, .-_ZN5Value8ToStringEv
	.section	.gcc_except_table,"a",@progbits
.LLSDA1943:
	.byte	0xff
	.byte	0xff
	.byte	0x1
	.uleb128 .LLSDACSE1943-.LLSDACSB1943
.LLSDACSB1943:
	.uleb128 .LEHB0-.LFB1943
	.uleb128 .LEHE0-.LEHB0
	.uleb128 .L74-.LFB1943
	.uleb128 0x0
	.uleb128 .LEHB1-.LFB1943
	.uleb128 .LEHE1-.LEHB1
	.uleb128 0x0
	.uleb128 0x0
	.uleb128 .LEHB2-.LFB1943
	.uleb128 .LEHE2-.LEHB2
	.uleb128 .L73-.LFB1943
	.uleb128 0x0
	.uleb128 .LEHB3-.LFB1943
	.uleb128 .LEHE3-.LEHB3
	.uleb128 .L72-.LFB1943
	.uleb128 0x0
	.uleb128 .LEHB4-.LFB1943
	.uleb128 .LEHE4-.LEHB4
	.uleb128 .L73-.LFB1943
	.uleb128 0x0
	.uleb128 .LEHB5-.LFB1943
	.uleb128 .LEHE5-.LEHB5
	.uleb128 0x0
	.uleb128 0x0
	.uleb128 .LEHB6-.LFB1943
	.uleb128 .LEHE6-.LEHB6
	.uleb128 0x0
	.uleb128 0x0
	.uleb128 .LEHB7-.LFB1943
	.uleb128 .LEHE7-.LEHB7
	.uleb128 .L71-.LFB1943
	.uleb128 0x0
	.uleb128 .LEHB8-.LFB1943
	.uleb128 .LEHE8-.LEHB8
	.uleb128 0x0
	.uleb128 0x0
	.uleb128 .LEHB9-.LFB1943
	.uleb128 .LEHE9-.LEHB9
	.uleb128 0x0
	.uleb128 0x0
	.uleb128 .LEHB10-.LFB1943
	.uleb128 .LEHE10-.LEHB10
	.uleb128 .L70-.LFB1943
	.uleb128 0x0
	.uleb128 .LEHB11-.LFB1943
	.uleb128 .LEHE11-.LEHB11
	.uleb128 .L69-.LFB1943
	.uleb128 0x0
	.uleb128 .LEHB12-.LFB1943
	.uleb128 .LEHE12-.LEHB12
	.uleb128 .L70-.LFB1943
	.uleb128 0x0
	.uleb128 .LEHB13-.LFB1943
	.uleb128 .LEHE13-.LEHB13
	.uleb128 0x0
	.uleb128 0x0
	.uleb128 .LEHB14-.LFB1943
	.uleb128 .LEHE14-.LEHB14
	.uleb128 0x0
	.uleb128 0x0
	.uleb128 .LEHB15-.LFB1943
	.uleb128 .LEHE15-.LEHB15
	.uleb128 .L68-.LFB1943
	.uleb128 0x0
	.uleb128 .LEHB16-.LFB1943
	.uleb128 .LEHE16-.LEHB16
	.uleb128 .L67-.LFB1943
	.uleb128 0x0
	.uleb128 .LEHB17-.LFB1943
	.uleb128 .LEHE17-.LEHB17
	.uleb128 .L68-.LFB1943
	.uleb128 0x0
	.uleb128 .LEHB18-.LFB1943
	.uleb128 .LEHE18-.LEHB18
	.uleb128 0x0
	.uleb128 0x0
	.uleb128 .LEHB19-.LFB1943
	.uleb128 .LEHE19-.LEHB19
	.uleb128 0x0
	.uleb128 0x0
	.uleb128 .LEHB20-.LFB1943
	.uleb128 .LEHE20-.LEHB20
	.uleb128 .L66-.LFB1943
	.uleb128 0x0
	.uleb128 .LEHB21-.LFB1943
	.uleb128 .LEHE21-.LEHB21
	.uleb128 0x0
	.uleb128 0x0
	.uleb128 .LEHB22-.LFB1943
	.uleb128 .LEHE22-.LEHB22
	.uleb128 0x0
	.uleb128 0x0
	.uleb128 .LEHB23-.LFB1943
	.uleb128 .LEHE23-.LEHB23
	.uleb128 .L65-.LFB1943
	.uleb128 0x0
	.uleb128 .LEHB24-.LFB1943
	.uleb128 .LEHE24-.LEHB24
	.uleb128 0x0
	.uleb128 0x0
.LLSDACSE1943:
	.text
	.section	.rodata
.LC14:
	.string	"%x"
	.section	.gnu.linkonce.t._ZN4Util8ToStringEPv,"ax",@progbits
	.align 2
	.weak	_ZN4Util8ToStringEPv
	.type	_ZN4Util8ToStringEPv, @function
_ZN4Util8ToStringEPv:
.LFB1926:
	pushq	%rbp
.LCFI15:
	movq	%rsp, %rbp
.LCFI16:
	pushq	%rbx
.LCFI17:
	subq	$56, %rsp
.LCFI18:
	movq	%rdi, -56(%rbp)
	movq	%rsi, -24(%rbp)
	movq	-24(%rbp), %rcx
	movl	$.LC14, %edx
	movl	$1048576, %esi
	movl	$buf, %edi
	movl	$0, %eax
	call	snprintf
	leaq	-48(%rbp), %rdi
	call	_ZNSaIcEC1Ev
	leaq	-48(%rbp), %rdx
	movl	$buf, %esi
	movq	-56(%rbp), %rdi
.LEHB25:
	call	_ZNSsC1EPKcRKSaIcE
.LEHE25:
	leaq	-48(%rbp), %rdi
	call	_ZNSaIcED1Ev
	jmp	.L75
.L80:
	movq	%rax, -64(%rbp)
.L76:
	movq	-64(%rbp), %rbx
	leaq	-48(%rbp), %rdi
	call	_ZNSaIcED1Ev
	movq	%rbx, -64(%rbp)
.L78:
	movq	-64(%rbp), %rdi
.LEHB26:
	call	_Unwind_Resume
.LEHE26:
.L75:
	movq	-56(%rbp), %rax
	addq	$56, %rsp
	popq	%rbx
	leave
	ret
.LFE1926:
	.size	_ZN4Util8ToStringEPv, .-_ZN4Util8ToStringEPv
	.section	.gcc_except_table
.LLSDA1926:
	.byte	0xff
	.byte	0xff
	.byte	0x1
	.uleb128 .LLSDACSE1926-.LLSDACSB1926
.LLSDACSB1926:
	.uleb128 .LEHB25-.LFB1926
	.uleb128 .LEHE25-.LEHB25
	.uleb128 .L80-.LFB1926
	.uleb128 0x0
	.uleb128 .LEHB26-.LFB1926
	.uleb128 .LEHE26-.LEHB26
	.uleb128 0x0
	.uleb128 0x0
.LLSDACSE1926:
	.section	.gnu.linkonce.t._ZN4Util8ToStringEPv
	.section	.rodata
.LC15:
	.string	"%lf"
	.section	.gnu.linkonce.t._ZN4Util8ToStringEd,"ax",@progbits
	.align 2
	.weak	_ZN4Util8ToStringEd
	.type	_ZN4Util8ToStringEd, @function
_ZN4Util8ToStringEd:
.LFB1925:
	pushq	%rbp
.LCFI19:
	movq	%rsp, %rbp
.LCFI20:
	pushq	%rbx
.LCFI21:
	subq	$72, %rsp
.LCFI22:
	movq	%rdi, -56(%rbp)
	movsd	%xmm0, -24(%rbp)
	movq	-24(%rbp), %rax
	movq	%rax, -72(%rbp)
	movlpd	-72(%rbp), %xmm0
	movl	$.LC15, %edx
	movl	$1048576, %esi
	movl	$buf, %edi
	movl	$1, %eax
	call	snprintf
	leaq	-48(%rbp), %rdi
	call	_ZNSaIcEC1Ev
	leaq	-48(%rbp), %rdx
	movl	$buf, %esi
	movq	-56(%rbp), %rdi
.LEHB27:
	call	_ZNSsC1EPKcRKSaIcE
.LEHE27:
	leaq	-48(%rbp), %rdi
	call	_ZNSaIcED1Ev
	jmp	.L81
.L86:
	movq	%rax, -64(%rbp)
.L82:
	movq	-64(%rbp), %rbx
	leaq	-48(%rbp), %rdi
	call	_ZNSaIcED1Ev
	movq	%rbx, -64(%rbp)
.L84:
	movq	-64(%rbp), %rdi
.LEHB28:
	call	_Unwind_Resume
.LEHE28:
.L81:
	movq	-56(%rbp), %rax
	addq	$72, %rsp
	popq	%rbx
	leave
	ret
.LFE1925:
	.size	_ZN4Util8ToStringEd, .-_ZN4Util8ToStringEd
	.section	.gcc_except_table
.LLSDA1925:
	.byte	0xff
	.byte	0xff
	.byte	0x1
	.uleb128 .LLSDACSE1925-.LLSDACSB1925
.LLSDACSB1925:
	.uleb128 .LEHB27-.LFB1925
	.uleb128 .LEHE27-.LEHB27
	.uleb128 .L86-.LFB1925
	.uleb128 0x0
	.uleb128 .LEHB28-.LFB1925
	.uleb128 .LEHE28-.LEHB28
	.uleb128 0x0
	.uleb128 0x0
.LLSDACSE1925:
	.section	.gnu.linkonce.t._ZN4Util8ToStringEd
	.section	.rodata
.LC16:
	.string	"---------------------------"
	.text
	.align 2
.globl _ZN5Value2GCEv
	.type	_ZN5Value2GCEv, @function
_ZN5Value2GCEv:
.LFB1944:
	pushq	%rbp
.LCFI23:
	movq	%rsp, %rbp
.LCFI24:
	movl	$.LC16, %esi
	movl	$_ZSt4cout, %edi
	call	_ZStlsISt11char_traitsIcEERSt13basic_ostreamIcT_ES5_PKc
	movq	%rax, %rdi
	movl	$_ZSt4endlIcSt11char_traitsIcEERSt13basic_ostreamIT_T0_ES6_, %esi
	call	_ZNSolsEPFRSoS_E
	movl	$g_root, %esi
	movl	$g_gc, %edi
	call	_ZN2GC14CollectGarbageEP5Value
	leave
	ret
.LFE1944:
	.size	_ZN5Value2GCEv, .-_ZN5Value2GCEv
	.align 2
.globl _ZN5Value1GEv
	.type	_ZN5Value1GEv, @function
_ZN5Value1GEv:
.LFB1945:
	pushq	%rbp
.LCFI25:
	movq	%rsp, %rbp
.LCFI26:
	movl	$g_root, %eax
	leave
	ret
.LFE1945:
	.size	_ZN5Value1GEv, .-_ZN5Value1GEv
	.align 2
.globl _ZN5Value4SizeEv
	.type	_ZN5Value4SizeEv, @function
_ZN5Value4SizeEv:
.LFB1946:
	pushq	%rbp
.LCFI27:
	movq	%rsp, %rbp
.LCFI28:
	subq	$32, %rsp
.LCFI29:
	movq	%rdi, -8(%rbp)
	movq	-8(%rbp), %rax
	movq	%rax, -24(%rbp)
	movq	-24(%rbp), %rdx
	cmpl	$5, (%rdx)
	ja	.L96
	movq	-24(%rbp), %rdx
	mov	(%rdx), %eax
	movq	.L97(,%rax,8), %rax
	jmp	*%rax
	.section	.rodata
	.align 8
	.align 4
.L97:
	.quad	.L93
	.quad	.L93
	.quad	.L94
	.quad	.L95
	.quad	.L96
	.quad	.L93
	.text
.L93:
	movq	$1, -16(%rbp)
	jmp	.L89
.L94:
	movq	-8(%rbp), %rdi
	addq	$24, %rdi
	call	_ZNKSt3mapISsP5ValueSt4lessISsESaISt4pairIKSsS1_EEE4sizeEv
	movq	%rax, -16(%rbp)
	jmp	.L89
.L95:
	movq	-8(%rbp), %rax
	movq	72(%rax), %rdi
	call	_ZN5Value4SizeEv
	movq	%rax, -16(%rbp)
	jmp	.L89
.L96:
	movq	$0, -16(%rbp)
.L89:
	movq	-16(%rbp), %rax
	leave
	ret
.LFE1946:
	.size	_ZN5Value4SizeEv, .-_ZN5Value4SizeEv
	.align 2
.globl _ZN5ValueC2Ev
	.type	_ZN5ValueC2Ev, @function
_ZN5ValueC2Ev:
.LFB1948:
	pushq	%rbp
.LCFI30:
	movq	%rsp, %rbp
.LCFI31:
	pushq	%rbx
.LCFI32:
	subq	$24, %rsp
.LCFI33:
	movq	%rdi, -16(%rbp)
	movq	-16(%rbp), %rdi
	addq	$16, %rdi
.LEHB29:
	call	_ZNSsC1Ev
.LEHE29:
	movq	-16(%rbp), %rdi
	addq	$24, %rdi
.LEHB30:
	call	_ZNSt3mapISsP5ValueSt4lessISsESaISt4pairIKSsS1_EEEC1Ev
.LEHE30:
	movq	-16(%rbp), %rax
	movl	$5, (%rax)
	movq	-16(%rbp), %rdi
.LEHB31:
	call	_ZN5Value11_CommonInitEv
.LEHE31:
	jmp	.L98
.L107:
	movq	%rax, -24(%rbp)
.L99:
	movq	-24(%rbp), %rbx
	movq	-16(%rbp), %rdi
	addq	$24, %rdi
	call	_ZNSt3mapISsP5ValueSt4lessISsESaISt4pairIKSsS1_EEED1Ev
	movq	%rbx, -24(%rbp)
.L101:
	jmp	.L103
.L108:
	movq	%rax, -24(%rbp)
.L103:
	movq	-24(%rbp), %rbx
	movq	-16(%rbp), %rdi
	addq	$16, %rdi
	call	_ZNSsD1Ev
	movq	%rbx, -24(%rbp)
.L105:
	movq	-24(%rbp), %rdi
.LEHB32:
	call	_Unwind_Resume
.LEHE32:
.L98:
	addq	$24, %rsp
	popq	%rbx
	leave
	ret
.LFE1948:
	.size	_ZN5ValueC2Ev, .-_ZN5ValueC2Ev
	.section	.gcc_except_table
.LLSDA1948:
	.byte	0xff
	.byte	0xff
	.byte	0x1
	.uleb128 .LLSDACSE1948-.LLSDACSB1948
.LLSDACSB1948:
	.uleb128 .LEHB29-.LFB1948
	.uleb128 .LEHE29-.LEHB29
	.uleb128 0x0
	.uleb128 0x0
	.uleb128 .LEHB30-.LFB1948
	.uleb128 .LEHE30-.LEHB30
	.uleb128 .L108-.LFB1948
	.uleb128 0x0
	.uleb128 .LEHB31-.LFB1948
	.uleb128 .LEHE31-.LEHB31
	.uleb128 .L107-.LFB1948
	.uleb128 0x0
	.uleb128 .LEHB32-.LFB1948
	.uleb128 .LEHE32-.LEHB32
	.uleb128 0x0
	.uleb128 0x0
.LLSDACSE1948:
	.text
	.section	.gnu.linkonce.t._ZNSt3mapISsP5ValueSt4lessISsESaISt4pairIKSsS1_EEED1Ev,"ax",@progbits
	.align 2
	.weak	_ZNSt3mapISsP5ValueSt4lessISsESaISt4pairIKSsS1_EEED1Ev
	.type	_ZNSt3mapISsP5ValueSt4lessISsESaISt4pairIKSsS1_EEED1Ev, @function
_ZNSt3mapISsP5ValueSt4lessISsESaISt4pairIKSsS1_EEED1Ev:
.LFB1931:
	pushq	%rbp
.LCFI34:
	movq	%rsp, %rbp
.LCFI35:
	subq	$16, %rsp
.LCFI36:
	movq	%rdi, -8(%rbp)
.L111:
	movq	-8(%rbp), %rdi
	call	_ZNSt8_Rb_treeISsSt4pairIKSsP5ValueESt10_Select1stIS4_ESt4lessISsESaIS4_EED1Ev
	leave
	ret
.LFE1931:
	.size	_ZNSt3mapISsP5ValueSt4lessISsESaISt4pairIKSsS1_EEED1Ev, .-_ZNSt3mapISsP5ValueSt4lessISsESaISt4pairIKSsS1_EEED1Ev
	.text
	.align 2
.globl _ZN5ValueC1Ev
	.type	_ZN5ValueC1Ev, @function
_ZN5ValueC1Ev:
.LFB1949:
	pushq	%rbp
.LCFI37:
	movq	%rsp, %rbp
.LCFI38:
	pushq	%rbx
.LCFI39:
	subq	$24, %rsp
.LCFI40:
	movq	%rdi, -16(%rbp)
	movq	-16(%rbp), %rdi
	addq	$16, %rdi
.LEHB33:
	call	_ZNSsC1Ev
.LEHE33:
	movq	-16(%rbp), %rdi
	addq	$24, %rdi
.LEHB34:
	call	_ZNSt3mapISsP5ValueSt4lessISsESaISt4pairIKSsS1_EEEC1Ev
.LEHE34:
	movq	-16(%rbp), %rax
	movl	$5, (%rax)
	movq	-16(%rbp), %rdi
.LEHB35:
	call	_ZN5Value11_CommonInitEv
.LEHE35:
	jmp	.L114
.L123:
	movq	%rax, -24(%rbp)
.L115:
	movq	-24(%rbp), %rbx
	movq	-16(%rbp), %rdi
	addq	$24, %rdi
	call	_ZNSt3mapISsP5ValueSt4lessISsESaISt4pairIKSsS1_EEED1Ev
	movq	%rbx, -24(%rbp)
.L117:
	jmp	.L119
.L124:
	movq	%rax, -24(%rbp)
.L119:
	movq	-24(%rbp), %rbx
	movq	-16(%rbp), %rdi
	addq	$16, %rdi
	call	_ZNSsD1Ev
	movq	%rbx, -24(%rbp)
.L121:
	movq	-24(%rbp), %rdi
.LEHB36:
	call	_Unwind_Resume
.LEHE36:
.L114:
	addq	$24, %rsp
	popq	%rbx
	leave
	ret
.LFE1949:
	.size	_ZN5ValueC1Ev, .-_ZN5ValueC1Ev
	.section	.gcc_except_table
.LLSDA1949:
	.byte	0xff
	.byte	0xff
	.byte	0x1
	.uleb128 .LLSDACSE1949-.LLSDACSB1949
.LLSDACSB1949:
	.uleb128 .LEHB33-.LFB1949
	.uleb128 .LEHE33-.LEHB33
	.uleb128 0x0
	.uleb128 0x0
	.uleb128 .LEHB34-.LFB1949
	.uleb128 .LEHE34-.LEHB34
	.uleb128 .L124-.LFB1949
	.uleb128 0x0
	.uleb128 .LEHB35-.LFB1949
	.uleb128 .LEHE35-.LEHB35
	.uleb128 .L123-.LFB1949
	.uleb128 0x0
	.uleb128 .LEHB36-.LFB1949
	.uleb128 .LEHE36-.LEHB36
	.uleb128 0x0
	.uleb128 0x0
.LLSDACSE1949:
	.text
	.align 2
.globl _ZN5ValueC2ESs
	.type	_ZN5ValueC2ESs, @function
_ZN5ValueC2ESs:
.LFB1951:
	pushq	%rbp
.LCFI41:
	movq	%rsp, %rbp
.LCFI42:
	pushq	%rbx
.LCFI43:
	subq	$56, %rsp
.LCFI44:
	movq	%rdi, -24(%rbp)
	movq	%rsi, -56(%rbp)
	movq	-24(%rbp), %rdi
	addq	$16, %rdi
.LEHB37:
	call	_ZNSsC1Ev
.LEHE37:
	movq	-24(%rbp), %rdi
	addq	$24, %rdi
.LEHB38:
	call	_ZNSt3mapISsP5ValueSt4lessISsESaISt4pairIKSsS1_EEEC1Ev
.LEHE38:
	leaq	-48(%rbp), %rdi
	movq	-56(%rbp), %rsi
.LEHB39:
	call	_ZNSsC1ERKSs
.LEHE39:
	leaq	-48(%rbp), %rsi
	movq	-24(%rbp), %rdi
.LEHB40:
	call	_ZN5Value3SetESs
.LEHE40:
	jmp	.L127
.L138:
	movq	%rax, -64(%rbp)
.L126:
	movq	-64(%rbp), %rbx
	leaq	-48(%rbp), %rdi
	call	_ZNSsD1Ev
	movq	%rbx, -64(%rbp)
.L128:
	jmp	.L130
.L127:
	leaq	-48(%rbp), %rdi
.LEHB41:
	call	_ZNSsD1Ev
	movq	-24(%rbp), %rdi
	call	_ZN5Value11_CommonInitEv
.LEHE41:
	jmp	.L125
.L139:
	movq	%rax, -64(%rbp)
.L130:
	movq	-64(%rbp), %rbx
	movq	-24(%rbp), %rdi
	addq	$24, %rdi
	call	_ZNSt3mapISsP5ValueSt4lessISsESaISt4pairIKSsS1_EEED1Ev
	movq	%rbx, -64(%rbp)
.L132:
	jmp	.L134
.L140:
	movq	%rax, -64(%rbp)
.L134:
	movq	-64(%rbp), %rbx
	movq	-24(%rbp), %rdi
	addq	$16, %rdi
	call	_ZNSsD1Ev
	movq	%rbx, -64(%rbp)
.L136:
	movq	-64(%rbp), %rdi
.LEHB42:
	call	_Unwind_Resume
.LEHE42:
.L125:
	addq	$56, %rsp
	popq	%rbx
	leave
	ret
.LFE1951:
	.size	_ZN5ValueC2ESs, .-_ZN5ValueC2ESs
	.section	.gcc_except_table
.LLSDA1951:
	.byte	0xff
	.byte	0xff
	.byte	0x1
	.uleb128 .LLSDACSE1951-.LLSDACSB1951
.LLSDACSB1951:
	.uleb128 .LEHB37-.LFB1951
	.uleb128 .LEHE37-.LEHB37
	.uleb128 0x0
	.uleb128 0x0
	.uleb128 .LEHB38-.LFB1951
	.uleb128 .LEHE38-.LEHB38
	.uleb128 .L140-.LFB1951
	.uleb128 0x0
	.uleb128 .LEHB39-.LFB1951
	.uleb128 .LEHE39-.LEHB39
	.uleb128 .L139-.LFB1951
	.uleb128 0x0
	.uleb128 .LEHB40-.LFB1951
	.uleb128 .LEHE40-.LEHB40
	.uleb128 .L138-.LFB1951
	.uleb128 0x0
	.uleb128 .LEHB41-.LFB1951
	.uleb128 .LEHE41-.LEHB41
	.uleb128 .L139-.LFB1951
	.uleb128 0x0
	.uleb128 .LEHB42-.LFB1951
	.uleb128 .LEHE42-.LEHB42
	.uleb128 0x0
	.uleb128 0x0
.LLSDACSE1951:
	.text
	.align 2
.globl _ZN5ValueC1ESs
	.type	_ZN5ValueC1ESs, @function
_ZN5ValueC1ESs:
.LFB1952:
	pushq	%rbp
.LCFI45:
	movq	%rsp, %rbp
.LCFI46:
	pushq	%rbx
.LCFI47:
	subq	$56, %rsp
.LCFI48:
	movq	%rdi, -24(%rbp)
	movq	%rsi, -56(%rbp)
	movq	-24(%rbp), %rdi
	addq	$16, %rdi
.LEHB43:
	call	_ZNSsC1Ev
.LEHE43:
	movq	-24(%rbp), %rdi
	addq	$24, %rdi
.LEHB44:
	call	_ZNSt3mapISsP5ValueSt4lessISsESaISt4pairIKSsS1_EEEC1Ev
.LEHE44:
	leaq	-48(%rbp), %rdi
	movq	-56(%rbp), %rsi
.LEHB45:
	call	_ZNSsC1ERKSs
.LEHE45:
	leaq	-48(%rbp), %rsi
	movq	-24(%rbp), %rdi
.LEHB46:
	call	_ZN5Value3SetESs
.LEHE46:
	jmp	.L143
.L154:
	movq	%rax, -64(%rbp)
.L142:
	movq	-64(%rbp), %rbx
	leaq	-48(%rbp), %rdi
	call	_ZNSsD1Ev
	movq	%rbx, -64(%rbp)
.L144:
	jmp	.L146
.L143:
	leaq	-48(%rbp), %rdi
.LEHB47:
	call	_ZNSsD1Ev
	movq	-24(%rbp), %rdi
	call	_ZN5Value11_CommonInitEv
.LEHE47:
	jmp	.L141
.L155:
	movq	%rax, -64(%rbp)
.L146:
	movq	-64(%rbp), %rbx
	movq	-24(%rbp), %rdi
	addq	$24, %rdi
	call	_ZNSt3mapISsP5ValueSt4lessISsESaISt4pairIKSsS1_EEED1Ev
	movq	%rbx, -64(%rbp)
.L148:
	jmp	.L150
.L156:
	movq	%rax, -64(%rbp)
.L150:
	movq	-64(%rbp), %rbx
	movq	-24(%rbp), %rdi
	addq	$16, %rdi
	call	_ZNSsD1Ev
	movq	%rbx, -64(%rbp)
.L152:
	movq	-64(%rbp), %rdi
.LEHB48:
	call	_Unwind_Resume
.LEHE48:
.L141:
	addq	$56, %rsp
	popq	%rbx
	leave
	ret
.LFE1952:
	.size	_ZN5ValueC1ESs, .-_ZN5ValueC1ESs
	.section	.gcc_except_table
.LLSDA1952:
	.byte	0xff
	.byte	0xff
	.byte	0x1
	.uleb128 .LLSDACSE1952-.LLSDACSB1952
.LLSDACSB1952:
	.uleb128 .LEHB43-.LFB1952
	.uleb128 .LEHE43-.LEHB43
	.uleb128 0x0
	.uleb128 0x0
	.uleb128 .LEHB44-.LFB1952
	.uleb128 .LEHE44-.LEHB44
	.uleb128 .L156-.LFB1952
	.uleb128 0x0
	.uleb128 .LEHB45-.LFB1952
	.uleb128 .LEHE45-.LEHB45
	.uleb128 .L155-.LFB1952
	.uleb128 0x0
	.uleb128 .LEHB46-.LFB1952
	.uleb128 .LEHE46-.LEHB46
	.uleb128 .L154-.LFB1952
	.uleb128 0x0
	.uleb128 .LEHB47-.LFB1952
	.uleb128 .LEHE47-.LEHB47
	.uleb128 .L155-.LFB1952
	.uleb128 0x0
	.uleb128 .LEHB48-.LFB1952
	.uleb128 .LEHE48-.LEHB48
	.uleb128 0x0
	.uleb128 0x0
.LLSDACSE1952:
	.text
	.align 2
.globl _ZN5ValueC2Ed
	.type	_ZN5ValueC2Ed, @function
_ZN5ValueC2Ed:
.LFB1954:
	pushq	%rbp
.LCFI49:
	movq	%rsp, %rbp
.LCFI50:
	pushq	%rbx
.LCFI51:
	subq	$40, %rsp
.LCFI52:
	movq	%rdi, -16(%rbp)
	movsd	%xmm0, -24(%rbp)
	movq	-16(%rbp), %rdi
	addq	$16, %rdi
.LEHB49:
	call	_ZNSsC1Ev
.LEHE49:
	movq	-16(%rbp), %rdi
	addq	$24, %rdi
.LEHB50:
	call	_ZNSt3mapISsP5ValueSt4lessISsESaISt4pairIKSsS1_EEEC1Ev
.LEHE50:
	movq	-24(%rbp), %rax
	movq	-16(%rbp), %rdi
	movq	%rax, -40(%rbp)
	movlpd	-40(%rbp), %xmm0
.LEHB51:
	call	_ZN5Value3SetEd
	movq	-16(%rbp), %rdi
	call	_ZN5Value11_CommonInitEv
.LEHE51:
	jmp	.L157
.L166:
	movq	%rax, -32(%rbp)
.L158:
	movq	-32(%rbp), %rbx
	movq	-16(%rbp), %rdi
	addq	$24, %rdi
	call	_ZNSt3mapISsP5ValueSt4lessISsESaISt4pairIKSsS1_EEED1Ev
	movq	%rbx, -32(%rbp)
.L160:
	jmp	.L162
.L167:
	movq	%rax, -32(%rbp)
.L162:
	movq	-32(%rbp), %rbx
	movq	-16(%rbp), %rdi
	addq	$16, %rdi
	call	_ZNSsD1Ev
	movq	%rbx, -32(%rbp)
.L164:
	movq	-32(%rbp), %rdi
.LEHB52:
	call	_Unwind_Resume
.LEHE52:
.L157:
	addq	$40, %rsp
	popq	%rbx
	leave
	ret
.LFE1954:
	.size	_ZN5ValueC2Ed, .-_ZN5ValueC2Ed
	.section	.gcc_except_table
.LLSDA1954:
	.byte	0xff
	.byte	0xff
	.byte	0x1
	.uleb128 .LLSDACSE1954-.LLSDACSB1954
.LLSDACSB1954:
	.uleb128 .LEHB49-.LFB1954
	.uleb128 .LEHE49-.LEHB49
	.uleb128 0x0
	.uleb128 0x0
	.uleb128 .LEHB50-.LFB1954
	.uleb128 .LEHE50-.LEHB50
	.uleb128 .L167-.LFB1954
	.uleb128 0x0
	.uleb128 .LEHB51-.LFB1954
	.uleb128 .LEHE51-.LEHB51
	.uleb128 .L166-.LFB1954
	.uleb128 0x0
	.uleb128 .LEHB52-.LFB1954
	.uleb128 .LEHE52-.LEHB52
	.uleb128 0x0
	.uleb128 0x0
.LLSDACSE1954:
	.text
	.align 2
.globl _ZN5ValueC1Ed
	.type	_ZN5ValueC1Ed, @function
_ZN5ValueC1Ed:
.LFB1955:
	pushq	%rbp
.LCFI53:
	movq	%rsp, %rbp
.LCFI54:
	pushq	%rbx
.LCFI55:
	subq	$40, %rsp
.LCFI56:
	movq	%rdi, -16(%rbp)
	movsd	%xmm0, -24(%rbp)
	movq	-16(%rbp), %rdi
	addq	$16, %rdi
.LEHB53:
	call	_ZNSsC1Ev
.LEHE53:
	movq	-16(%rbp), %rdi
	addq	$24, %rdi
.LEHB54:
	call	_ZNSt3mapISsP5ValueSt4lessISsESaISt4pairIKSsS1_EEEC1Ev
.LEHE54:
	movq	-24(%rbp), %rax
	movq	-16(%rbp), %rdi
	movq	%rax, -40(%rbp)
	movlpd	-40(%rbp), %xmm0
.LEHB55:
	call	_ZN5Value3SetEd
	movq	-16(%rbp), %rdi
	call	_ZN5Value11_CommonInitEv
.LEHE55:
	jmp	.L168
.L177:
	movq	%rax, -32(%rbp)
.L169:
	movq	-32(%rbp), %rbx
	movq	-16(%rbp), %rdi
	addq	$24, %rdi
	call	_ZNSt3mapISsP5ValueSt4lessISsESaISt4pairIKSsS1_EEED1Ev
	movq	%rbx, -32(%rbp)
.L171:
	jmp	.L173
.L178:
	movq	%rax, -32(%rbp)
.L173:
	movq	-32(%rbp), %rbx
	movq	-16(%rbp), %rdi
	addq	$16, %rdi
	call	_ZNSsD1Ev
	movq	%rbx, -32(%rbp)
.L175:
	movq	-32(%rbp), %rdi
.LEHB56:
	call	_Unwind_Resume
.LEHE56:
.L168:
	addq	$40, %rsp
	popq	%rbx
	leave
	ret
.LFE1955:
	.size	_ZN5ValueC1Ed, .-_ZN5ValueC1Ed
	.section	.gcc_except_table
.LLSDA1955:
	.byte	0xff
	.byte	0xff
	.byte	0x1
	.uleb128 .LLSDACSE1955-.LLSDACSB1955
.LLSDACSB1955:
	.uleb128 .LEHB53-.LFB1955
	.uleb128 .LEHE53-.LEHB53
	.uleb128 0x0
	.uleb128 0x0
	.uleb128 .LEHB54-.LFB1955
	.uleb128 .LEHE54-.LEHB54
	.uleb128 .L178-.LFB1955
	.uleb128 0x0
	.uleb128 .LEHB55-.LFB1955
	.uleb128 .LEHE55-.LEHB55
	.uleb128 .L177-.LFB1955
	.uleb128 0x0
	.uleb128 .LEHB56-.LFB1955
	.uleb128 .LEHE56-.LEHB56
	.uleb128 0x0
	.uleb128 0x0
.LLSDACSE1955:
	.text
	.align 2
.globl _ZN5Value3GetESsb
	.type	_ZN5Value3GetESsb, @function
_ZN5Value3GetESsb:
.LFB1956:
	pushq	%rbp
.LCFI57:
	movq	%rsp, %rbp
.LCFI58:
	pushq	%rbx
.LCFI59:
	subq	$88, %rsp
.LCFI60:
	movq	%rdi, -24(%rbp)
	movq	%rsi, -72(%rbp)
	movb	%dl, -25(%rbp)
	movq	-24(%rbp), %rax
	cmpl	$5, (%rax)
	jne	.L180
	movq	-24(%rbp), %rax
	movl	$2, (%rax)
.L180:
	movq	-24(%rbp), %rax
	cmpl	$2, (%rax)
	jne	.L181
	movq	-24(%rbp), %rdi
	addq	$24, %rdi
	movq	-72(%rbp), %rsi
.LEHB57:
	call	_ZNSt3mapISsP5ValueSt4lessISsESaISt4pairIKSsS1_EEE4findERS5_
	movq	%rax, -48(%rbp)
	movq	-24(%rbp), %rdi
	addq	$24, %rdi
	call	_ZNSt3mapISsP5ValueSt4lessISsESaISt4pairIKSsS1_EEE3endEv
	movq	%rax, -56(%rbp)
	leaq	-56(%rbp), %rsi
	leaq	-48(%rbp), %rdi
	call	_ZNKSt17_Rb_tree_iteratorISt4pairIKSsP5ValueEEneERKS5_
	testb	%al, %al
	je	.L183
	leaq	-48(%rbp), %rdi
	call	_ZNKSt17_Rb_tree_iteratorISt4pairIKSsP5ValueEEptEv
	movq	8(%rax), %rax
	movq	%rax, -64(%rbp)
	jmp	.L179
.L181:
	movq	-24(%rbp), %rax
	cmpl	$2, (%rax)
	je	.L183
	cmpb	$0, -25(%rbp)
	je	.L185
	movq	-24(%rbp), %rax
	movl	$2, (%rax)
	movq	-24(%rbp), %rdi
	addq	$24, %rdi
	call	_ZNSt3mapISsP5ValueSt4lessISsESaISt4pairIKSsS1_EEE5clearEv
	jmp	.L183
.L185:
	movq	$0, -64(%rbp)
	jmp	.L179
.L183:
	movl	$96, %edi
	call	_Znwm
.LEHE57:
	movq	%rax, -80(%rbp)
	movq	-80(%rbp), %rdi
.LEHB58:
	call	_ZN5ValueC1Ev
.LEHE58:
	jmp	.L188
.L191:
	movq	%rax, -88(%rbp)
.L187:
	movq	-88(%rbp), %rbx
	movq	-80(%rbp), %rdi
	call	_ZdlPv
	movq	%rbx, -88(%rbp)
.L189:
	movq	-88(%rbp), %rdi
.LEHB59:
	call	_Unwind_Resume
.L188:
	movq	-80(%rbp), %rax
	movq	%rax, -48(%rbp)
	movq	-24(%rbp), %rdi
	addq	$24, %rdi
	movq	-72(%rbp), %rsi
	call	_ZNSt3mapISsP5ValueSt4lessISsESaISt4pairIKSsS1_EEEixERS5_
.LEHE59:
	movq	%rax, %rdx
	movq	-48(%rbp), %rax
	movq	%rax, (%rdx)
	movq	-48(%rbp), %rax
	movq	%rax, -64(%rbp)
.L179:
	movq	-64(%rbp), %rax
	addq	$88, %rsp
	popq	%rbx
	leave
	ret
.LFE1956:
	.size	_ZN5Value3GetESsb, .-_ZN5Value3GetESsb
	.section	.gcc_except_table
.LLSDA1956:
	.byte	0xff
	.byte	0xff
	.byte	0x1
	.uleb128 .LLSDACSE1956-.LLSDACSB1956
.LLSDACSB1956:
	.uleb128 .LEHB57-.LFB1956
	.uleb128 .LEHE57-.LEHB57
	.uleb128 0x0
	.uleb128 0x0
	.uleb128 .LEHB58-.LFB1956
	.uleb128 .LEHE58-.LEHB58
	.uleb128 .L191-.LFB1956
	.uleb128 0x0
	.uleb128 .LEHB59-.LFB1956
	.uleb128 .LEHE59-.LEHB59
	.uleb128 0x0
	.uleb128 0x0
.LLSDACSE1956:
	.text
	.align 2
.globl _ZN5Value3SetEd
	.type	_ZN5Value3SetEd, @function
_ZN5Value3SetEd:
.LFB1957:
	pushq	%rbp
.LCFI61:
	movq	%rsp, %rbp
.LCFI62:
	movq	%rdi, -8(%rbp)
	movsd	%xmm0, -16(%rbp)
	movq	-8(%rbp), %rax
	movl	$0, (%rax)
	movq	-8(%rbp), %rdx
	movq	-16(%rbp), %rax
	movq	%rax, 8(%rdx)
	movq	-8(%rbp), %rax
	leave
	ret
.LFE1957:
	.size	_ZN5Value3SetEd, .-_ZN5Value3SetEd
	.align 2
.globl _ZN5Value3SetEPS_
	.type	_ZN5Value3SetEPS_, @function
_ZN5Value3SetEPS_:
.LFB1958:
	pushq	%rbp
.LCFI63:
	movq	%rsp, %rbp
.LCFI64:
	subq	$16, %rsp
.LCFI65:
	movq	%rdi, -8(%rbp)
	movq	%rsi, -16(%rbp)
	movq	-8(%rbp), %rdx
	movq	-16(%rbp), %rax
	movl	(%rax), %eax
	movl	%eax, (%rdx)
	movq	-16(%rbp), %rax
	cmpl	$2, (%rax)
	jne	.L194
	movq	-8(%rbp), %rax
	movl	$3, (%rax)
	movq	-8(%rbp), %rdx
	movq	-16(%rbp), %rax
	movq	%rax, 72(%rdx)
	jmp	.L195
.L194:
	movq	-16(%rbp), %rax
	cmpl	$3, (%rax)
	jne	.L196
	movq	-8(%rbp), %rax
	movq	-16(%rbp), %rdx
	movq	72(%rdx), %rdx
	movq	%rdx, 72(%rax)
	jmp	.L195
.L196:
	movq	-16(%rbp), %rax
	cmpl	$1, (%rax)
	jne	.L198
	movq	-16(%rbp), %rsi
	addq	$16, %rsi
	movq	-8(%rbp), %rdi
	addq	$16, %rdi
	call	_ZNSsaSERKSs
	jmp	.L195
.L198:
	movq	-16(%rbp), %rax
	cmpl	$0, (%rax)
	jne	.L200
	movq	-8(%rbp), %rax
	movq	-16(%rbp), %rdx
	movq	8(%rdx), %rdx
	movq	%rdx, 8(%rax)
	jmp	.L195
.L200:
	movq	-16(%rbp), %rax
	cmpl	$4, (%rax)
	jne	.L195
	movq	-8(%rbp), %rax
	movq	-16(%rbp), %rdx
	movq	88(%rdx), %rdx
	movq	%rdx, 88(%rax)
.L195:
	movq	-8(%rbp), %rax
	leave
	ret
.LFE1958:
	.size	_ZN5Value3SetEPS_, .-_ZN5Value3SetEPS_
	.align 2
.globl _ZN5Value3SetESs
	.type	_ZN5Value3SetESs, @function
_ZN5Value3SetESs:
.LFB1959:
	pushq	%rbp
.LCFI66:
	movq	%rsp, %rbp
.LCFI67:
	subq	$16, %rsp
.LCFI68:
	movq	%rdi, -8(%rbp)
	movq	-8(%rbp), %rax
	movl	$1, (%rax)
	movq	-8(%rbp), %rdi
	addq	$16, %rdi
	call	_ZNSsaSERKSs
	movq	-8(%rbp), %rax
	leave
	ret
.LFE1959:
	.size	_ZN5Value3SetESs, .-_ZN5Value3SetESs
	.align 2
.globl _ZN5Value11_CommonInitEv
	.type	_ZN5Value11_CommonInitEv, @function
_ZN5Value11_CommonInitEv:
.LFB1960:
	pushq	%rbp
.LCFI69:
	movq	%rsp, %rbp
.LCFI70:
	subq	$16, %rsp
.LCFI71:
	movq	%rdi, -8(%rbp)
	movq	-8(%rbp), %rax
	movb	$97, 84(%rax)
	movq	-8(%rbp), %rsi
	movl	$g_gc, %edi
	call	_ZN2GC9RegistVarEP5Value
	leave
	ret
.LFE1960:
	.size	_ZN5Value11_CommonInitEv, .-_ZN5Value11_CommonInitEv
	.section	.gnu.linkonce.t._ZSt3minImERKT_S2_S2_,"ax",@progbits
	.align 2
	.weak	_ZSt3minImERKT_S2_S2_
	.type	_ZSt3minImERKT_S2_S2_, @function
_ZSt3minImERKT_S2_S2_:
.LFB1961:
	pushq	%rbp
.LCFI72:
	movq	%rsp, %rbp
.LCFI73:
	movq	%rdi, -8(%rbp)
	movq	%rsi, -16(%rbp)
	movq	-16(%rbp), %rax
	movq	-8(%rbp), %rdx
	movq	(%rax), %rax
	cmpq	(%rdx), %rax
	jae	.L206
	movq	-16(%rbp), %rax
	movq	%rax, -24(%rbp)
	jmp	.L205
.L206:
	movq	-8(%rbp), %rax
	movq	%rax, -24(%rbp)
.L205:
	movq	-24(%rbp), %rax
	leave
	ret
.LFE1961:
	.size	_ZSt3minImERKT_S2_S2_, .-_ZSt3minImERKT_S2_S2_
	.section	.gnu.linkonce.t._ZNSt3mapISsP5ValueSt4lessISsESaISt4pairIKSsS1_EEEC1Ev,"ax",@progbits
	.align 2
	.weak	_ZNSt3mapISsP5ValueSt4lessISsESaISt4pairIKSsS1_EEEC1Ev
	.type	_ZNSt3mapISsP5ValueSt4lessISsESaISt4pairIKSsS1_EEEC1Ev, @function
_ZNSt3mapISsP5ValueSt4lessISsESaISt4pairIKSsS1_EEEC1Ev:
.LFB1985:
	pushq	%rbp
.LCFI74:
	movq	%rsp, %rbp
.LCFI75:
	pushq	%rbx
.LCFI76:
	subq	$56, %rsp
.LCFI77:
	movq	%rdi, -24(%rbp)
	leaq	-48(%rbp), %rdi
	call	_ZNSaISt4pairIKSsP5ValueEEC1Ev
	leaq	-48(%rbp), %rdx
	leaq	-49(%rbp), %rsi
	movq	-24(%rbp), %rdi
.LEHB60:
	call	_ZNSt8_Rb_treeISsSt4pairIKSsP5ValueESt10_Select1stIS4_ESt4lessISsESaIS4_EEC1ERKS8_RKS9_
.LEHE60:
	jmp	.L209
.L214:
	movq	%rax, -64(%rbp)
.L208:
	movq	-64(%rbp), %rbx
	leaq	-48(%rbp), %rdi
	call	_ZNSaISt4pairIKSsP5ValueEED1Ev
	movq	%rbx, -64(%rbp)
.L210:
	movq	-64(%rbp), %rdi
.LEHB61:
	call	_Unwind_Resume
.LEHE61:
.L209:
	leaq	-48(%rbp), %rdi
	call	_ZNSaISt4pairIKSsP5ValueEED1Ev
	addq	$56, %rsp
	popq	%rbx
	leave
	ret
.L212:
.LFE1985:
	.size	_ZNSt3mapISsP5ValueSt4lessISsESaISt4pairIKSsS1_EEEC1Ev, .-_ZNSt3mapISsP5ValueSt4lessISsESaISt4pairIKSsS1_EEEC1Ev
	.section	.gcc_except_table
.LLSDA1985:
	.byte	0xff
	.byte	0xff
	.byte	0x1
	.uleb128 .LLSDACSE1985-.LLSDACSB1985
.LLSDACSB1985:
	.uleb128 .LEHB60-.LFB1985
	.uleb128 .LEHE60-.LEHB60
	.uleb128 .L214-.LFB1985
	.uleb128 0x0
	.uleb128 .LEHB61-.LFB1985
	.uleb128 .LEHE61-.LEHB61
	.uleb128 0x0
	.uleb128 0x0
.LLSDACSE1985:
	.section	.gnu.linkonce.t._ZNSt3mapISsP5ValueSt4lessISsESaISt4pairIKSsS1_EEEC1Ev
	.section	.gnu.linkonce.t._ZNSt8_Rb_treeISsSt4pairIKSsP5ValueESt10_Select1stIS4_ESt4lessISsESaIS4_EED1Ev,"ax",@progbits
	.align 2
	.weak	_ZNSt8_Rb_treeISsSt4pairIKSsP5ValueESt10_Select1stIS4_ESt4lessISsESaIS4_EED1Ev
	.type	_ZNSt8_Rb_treeISsSt4pairIKSsP5ValueESt10_Select1stIS4_ESt4lessISsESaIS4_EED1Ev, @function
_ZNSt8_Rb_treeISsSt4pairIKSsP5ValueESt10_Select1stIS4_ESt4lessISsESaIS4_EED1Ev:
.LFB1991:
	pushq	%rbp
.LCFI78:
	movq	%rsp, %rbp
.LCFI79:
	pushq	%rbx
.LCFI80:
	subq	$24, %rsp
.LCFI81:
	movq	%rdi, -16(%rbp)
	movq	-16(%rbp), %rdi
.LEHB62:
	call	_ZNSt8_Rb_treeISsSt4pairIKSsP5ValueESt10_Select1stIS4_ESt4lessISsESaIS4_EE8_M_beginEv
	movq	%rax, %rsi
	movq	-16(%rbp), %rdi
	call	_ZNSt8_Rb_treeISsSt4pairIKSsP5ValueESt10_Select1stIS4_ESt4lessISsESaIS4_EE8_M_eraseEPSt13_Rb_tree_nodeIS4_E
.LEHE62:
	jmp	.L218
.L222:
	movq	%rax, -24(%rbp)
.L217:
	movq	-24(%rbp), %rbx
	movq	-16(%rbp), %rdi
	call	_ZNSt8_Rb_treeISsSt4pairIKSsP5ValueESt10_Select1stIS4_ESt4lessISsESaIS4_EE13_Rb_tree_implIS8_Lb0EED1Ev
	movq	%rbx, -24(%rbp)
.L219:
	movq	-24(%rbp), %rdi
.LEHB63:
	call	_Unwind_Resume
.LEHE63:
.L218:
	movq	-16(%rbp), %rdi
	call	_ZNSt8_Rb_treeISsSt4pairIKSsP5ValueESt10_Select1stIS4_ESt4lessISsESaIS4_EE13_Rb_tree_implIS8_Lb0EED1Ev
	addq	$24, %rsp
	popq	%rbx
	leave
	ret
.LFE1991:
	.size	_ZNSt8_Rb_treeISsSt4pairIKSsP5ValueESt10_Select1stIS4_ESt4lessISsESaIS4_EED1Ev, .-_ZNSt8_Rb_treeISsSt4pairIKSsP5ValueESt10_Select1stIS4_ESt4lessISsESaIS4_EED1Ev
	.section	.gcc_except_table
.LLSDA1991:
	.byte	0xff
	.byte	0xff
	.byte	0x1
	.uleb128 .LLSDACSE1991-.LLSDACSB1991
.LLSDACSB1991:
	.uleb128 .LEHB62-.LFB1991
	.uleb128 .LEHE62-.LEHB62
	.uleb128 .L222-.LFB1991
	.uleb128 0x0
	.uleb128 .LEHB63-.LFB1991
	.uleb128 .LEHE63-.LEHB63
	.uleb128 0x0
	.uleb128 0x0
.LLSDACSE1991:
	.section	.gnu.linkonce.t._ZNSt8_Rb_treeISsSt4pairIKSsP5ValueESt10_Select1stIS4_ESt4lessISsESaIS4_EED1Ev
	.section	.gnu.linkonce.t._ZNSt8_Rb_treeISsSt4pairIKSsP5ValueESt10_Select1stIS4_ESt4lessISsESaIS4_EE13_Rb_tree_implIS8_Lb0EED1Ev,"ax",@progbits
	.align 2
	.weak	_ZNSt8_Rb_treeISsSt4pairIKSsP5ValueESt10_Select1stIS4_ESt4lessISsESaIS4_EE13_Rb_tree_implIS8_Lb0EED1Ev
	.type	_ZNSt8_Rb_treeISsSt4pairIKSsP5ValueESt10_Select1stIS4_ESt4lessISsESaIS4_EE13_Rb_tree_implIS8_Lb0EED1Ev, @function
_ZNSt8_Rb_treeISsSt4pairIKSsP5ValueESt10_Select1stIS4_ESt4lessISsESaIS4_EE13_Rb_tree_implIS8_Lb0EED1Ev:
.LFB1989:
	pushq	%rbp
.LCFI82:
	movq	%rsp, %rbp
.LCFI83:
	subq	$16, %rsp
.LCFI84:
	movq	%rdi, -8(%rbp)
.L225:
	movq	-8(%rbp), %rdi
	call	_ZNSaISt13_Rb_tree_nodeISt4pairIKSsP5ValueEEED2Ev
	leave
	ret
.L228:
.LFE1989:
	.size	_ZNSt8_Rb_treeISsSt4pairIKSsP5ValueESt10_Select1stIS4_ESt4lessISsESaIS4_EE13_Rb_tree_implIS8_Lb0EED1Ev, .-_ZNSt8_Rb_treeISsSt4pairIKSsP5ValueESt10_Select1stIS4_ESt4lessISsESaIS4_EE13_Rb_tree_implIS8_Lb0EED1Ev
	.section	.gnu.linkonce.t._ZStplIcSt11char_traitsIcESaIcEESbIT_T0_T1_EPKS3_RKS6_,"ax",@progbits
	.align 2
	.weak	_ZStplIcSt11char_traitsIcESaIcEESbIT_T0_T1_EPKS3_RKS6_
	.type	_ZStplIcSt11char_traitsIcESaIcEESbIT_T0_T1_EPKS3_RKS6_, @function
_ZStplIcSt11char_traitsIcESaIcEESbIT_T0_T1_EPKS3_RKS6_:
.LFB1994:
	pushq	%rbp
.LCFI85:
	movq	%rsp, %rbp
.LCFI86:
	pushq	%rbx
.LCFI87:
	subq	$40, %rsp
.LCFI88:
	movq	%rdi, -40(%rbp)
	movq	%rsi, -16(%rbp)
	movq	%rdx, -24(%rbp)
	movq	-16(%rbp), %rdi
.LEHB64:
	call	_ZNSt11char_traitsIcE6lengthEPKc
	movq	%rax, -32(%rbp)
	movq	-40(%rbp), %rdi
	call	_ZNSsC1Ev
.LEHE64:
	movq	-24(%rbp), %rdi
.LEHB65:
	call	_ZNKSs4sizeEv
	movq	%rax, %rsi
	addq	-32(%rbp), %rsi
	movq	-40(%rbp), %rdi
	call	_ZNSs7reserveEm
	movq	-32(%rbp), %rdx
	movq	-16(%rbp), %rsi
	movq	-40(%rbp), %rdi
	call	_ZNSs6appendEPKcm
	movq	-24(%rbp), %rsi
	movq	-40(%rbp), %rdi
	call	_ZNSs6appendERKSs
.LEHE65:
	jmp	.L230
.L235:
	movq	%rax, -48(%rbp)
.L231:
	movq	-48(%rbp), %rbx
	movq	-40(%rbp), %rdi
	call	_ZNSsD1Ev
	movq	%rbx, -48(%rbp)
.L233:
	movq	-48(%rbp), %rdi
.LEHB66:
	call	_Unwind_Resume
.LEHE66:
.L230:
	movq	-40(%rbp), %rax
	addq	$40, %rsp
	popq	%rbx
	leave
	ret
.LFE1994:
	.size	_ZStplIcSt11char_traitsIcESaIcEESbIT_T0_T1_EPKS3_RKS6_, .-_ZStplIcSt11char_traitsIcESaIcEESbIT_T0_T1_EPKS3_RKS6_
	.section	.gcc_except_table
.LLSDA1994:
	.byte	0xff
	.byte	0xff
	.byte	0x1
	.uleb128 .LLSDACSE1994-.LLSDACSB1994
.LLSDACSB1994:
	.uleb128 .LEHB64-.LFB1994
	.uleb128 .LEHE64-.LEHB64
	.uleb128 0x0
	.uleb128 0x0
	.uleb128 .LEHB65-.LFB1994
	.uleb128 .LEHE65-.LEHB65
	.uleb128 .L235-.LFB1994
	.uleb128 0x0
	.uleb128 .LEHB66-.LFB1994
	.uleb128 .LEHE66-.LEHB66
	.uleb128 0x0
	.uleb128 0x0
.LLSDACSE1994:
	.section	.gnu.linkonce.t._ZStplIcSt11char_traitsIcESaIcEESbIT_T0_T1_EPKS3_RKS6_
	.section	.gnu.linkonce.t._ZNSt11char_traitsIcE6lengthEPKc,"ax",@progbits
	.align 2
	.weak	_ZNSt11char_traitsIcE6lengthEPKc
	.type	_ZNSt11char_traitsIcE6lengthEPKc, @function
_ZNSt11char_traitsIcE6lengthEPKc:
.LFB235:
	pushq	%rbp
.LCFI89:
	movq	%rsp, %rbp
.LCFI90:
	subq	$16, %rsp
.LCFI91:
	movq	%rdi, -8(%rbp)
	movq	-8(%rbp), %rdi
	call	strlen
	leave
	ret
.LFE235:
	.size	_ZNSt11char_traitsIcE6lengthEPKc, .-_ZNSt11char_traitsIcE6lengthEPKc
	.section	.gnu.linkonce.t._ZStplIcSt11char_traitsIcESaIcEESbIT_T0_T1_ERKS6_PKS3_,"ax",@progbits
	.align 2
	.weak	_ZStplIcSt11char_traitsIcESaIcEESbIT_T0_T1_ERKS6_PKS3_
	.type	_ZStplIcSt11char_traitsIcESaIcEESbIT_T0_T1_ERKS6_PKS3_, @function
_ZStplIcSt11char_traitsIcESaIcEESbIT_T0_T1_ERKS6_PKS3_:
.LFB1995:
	pushq	%rbp
.LCFI92:
	movq	%rsp, %rbp
.LCFI93:
	pushq	%rbx
.LCFI94:
	subq	$40, %rsp
.LCFI95:
	movq	%rdi, -32(%rbp)
	movq	%rsi, -16(%rbp)
	movq	%rdx, -24(%rbp)
	movq	-16(%rbp), %rsi
	movq	-32(%rbp), %rdi
.LEHB67:
	call	_ZNSsC1ERKSs
.LEHE67:
	movq	-24(%rbp), %rsi
	movq	-32(%rbp), %rdi
.LEHB68:
	call	_ZNSs6appendEPKc
.LEHE68:
	jmp	.L237
.L242:
	movq	%rax, -40(%rbp)
.L238:
	movq	-40(%rbp), %rbx
	movq	-32(%rbp), %rdi
	call	_ZNSsD1Ev
	movq	%rbx, -40(%rbp)
.L240:
	movq	-40(%rbp), %rdi
.LEHB69:
	call	_Unwind_Resume
.LEHE69:
.L237:
	movq	-32(%rbp), %rax
	addq	$40, %rsp
	popq	%rbx
	leave
	ret
.LFE1995:
	.size	_ZStplIcSt11char_traitsIcESaIcEESbIT_T0_T1_ERKS6_PKS3_, .-_ZStplIcSt11char_traitsIcESaIcEESbIT_T0_T1_ERKS6_PKS3_
	.section	.gcc_except_table
.LLSDA1995:
	.byte	0xff
	.byte	0xff
	.byte	0x1
	.uleb128 .LLSDACSE1995-.LLSDACSB1995
.LLSDACSB1995:
	.uleb128 .LEHB67-.LFB1995
	.uleb128 .LEHE67-.LEHB67
	.uleb128 0x0
	.uleb128 0x0
	.uleb128 .LEHB68-.LFB1995
	.uleb128 .LEHE68-.LEHB68
	.uleb128 .L242-.LFB1995
	.uleb128 0x0
	.uleb128 .LEHB69-.LFB1995
	.uleb128 .LEHE69-.LEHB69
	.uleb128 0x0
	.uleb128 0x0
.LLSDACSE1995:
	.section	.gnu.linkonce.t._ZStplIcSt11char_traitsIcESaIcEESbIT_T0_T1_ERKS6_PKS3_
	.section	.gnu.linkonce.t._ZNKSt3mapISsP5ValueSt4lessISsESaISt4pairIKSsS1_EEE4sizeEv,"ax",@progbits
	.align 2
	.weak	_ZNKSt3mapISsP5ValueSt4lessISsESaISt4pairIKSsS1_EEE4sizeEv
	.type	_ZNKSt3mapISsP5ValueSt4lessISsESaISt4pairIKSsS1_EEE4sizeEv, @function
_ZNKSt3mapISsP5ValueSt4lessISsESaISt4pairIKSsS1_EEE4sizeEv:
.LFB1996:
	pushq	%rbp
.LCFI96:
	movq	%rsp, %rbp
.LCFI97:
	subq	$16, %rsp
.LCFI98:
	movq	%rdi, -8(%rbp)
	movq	-8(%rbp), %rdi
	call	_ZNKSt8_Rb_treeISsSt4pairIKSsP5ValueESt10_Select1stIS4_ESt4lessISsESaIS4_EE4sizeEv
	leave
	ret
.LFE1996:
	.size	_ZNKSt3mapISsP5ValueSt4lessISsESaISt4pairIKSsS1_EEE4sizeEv, .-_ZNKSt3mapISsP5ValueSt4lessISsESaISt4pairIKSsS1_EEE4sizeEv
	.section	.gnu.linkonce.t._ZNSt3mapISsP5ValueSt4lessISsESaISt4pairIKSsS1_EEE4findERS5_,"ax",@progbits
	.align 2
	.weak	_ZNSt3mapISsP5ValueSt4lessISsESaISt4pairIKSsS1_EEE4findERS5_
	.type	_ZNSt3mapISsP5ValueSt4lessISsESaISt4pairIKSsS1_EEE4findERS5_, @function
_ZNSt3mapISsP5ValueSt4lessISsESaISt4pairIKSsS1_EEE4findERS5_:
.LFB1997:
	pushq	%rbp
.LCFI99:
	movq	%rsp, %rbp
.LCFI100:
	subq	$32, %rsp
.LCFI101:
	movq	%rdi, -8(%rbp)
	movq	%rsi, -16(%rbp)
	movq	-16(%rbp), %rsi
	movq	-8(%rbp), %rdi
	call	_ZNSt8_Rb_treeISsSt4pairIKSsP5ValueESt10_Select1stIS4_ESt4lessISsESaIS4_EE4findERS1_
	movq	%rax, -24(%rbp)
	movq	-24(%rbp), %rax
	leave
	ret
.LFE1997:
	.size	_ZNSt3mapISsP5ValueSt4lessISsESaISt4pairIKSsS1_EEE4findERS5_, .-_ZNSt3mapISsP5ValueSt4lessISsESaISt4pairIKSsS1_EEE4findERS5_
	.section	.gnu.linkonce.t._ZNSt3mapISsP5ValueSt4lessISsESaISt4pairIKSsS1_EEE3endEv,"ax",@progbits
	.align 2
	.weak	_ZNSt3mapISsP5ValueSt4lessISsESaISt4pairIKSsS1_EEE3endEv
	.type	_ZNSt3mapISsP5ValueSt4lessISsESaISt4pairIKSsS1_EEE3endEv, @function
_ZNSt3mapISsP5ValueSt4lessISsESaISt4pairIKSsS1_EEE3endEv:
.LFB1998:
	pushq	%rbp
.LCFI102:
	movq	%rsp, %rbp
.LCFI103:
	subq	$16, %rsp
.LCFI104:
	movq	%rdi, -8(%rbp)
	movq	-8(%rbp), %rdi
	call	_ZNSt8_Rb_treeISsSt4pairIKSsP5ValueESt10_Select1stIS4_ESt4lessISsESaIS4_EE3endEv
	movq	%rax, -16(%rbp)
	movq	-16(%rbp), %rax
	leave
	ret
.LFE1998:
	.size	_ZNSt3mapISsP5ValueSt4lessISsESaISt4pairIKSsS1_EEE3endEv, .-_ZNSt3mapISsP5ValueSt4lessISsESaISt4pairIKSsS1_EEE3endEv
	.section	.gnu.linkonce.t._ZNKSt17_Rb_tree_iteratorISt4pairIKSsP5ValueEEneERKS5_,"ax",@progbits
	.align 2
	.weak	_ZNKSt17_Rb_tree_iteratorISt4pairIKSsP5ValueEEneERKS5_
	.type	_ZNKSt17_Rb_tree_iteratorISt4pairIKSsP5ValueEEneERKS5_, @function
_ZNKSt17_Rb_tree_iteratorISt4pairIKSsP5ValueEEneERKS5_:
.LFB1999:
	pushq	%rbp
.LCFI105:
	movq	%rsp, %rbp
.LCFI106:
	movq	%rdi, -8(%rbp)
	movq	%rsi, -16(%rbp)
	movq	-8(%rbp), %rax
	movq	-16(%rbp), %rdx
	movq	(%rax), %rax
	cmpq	(%rdx), %rax
	setne	%al
	movzbl	%al, %eax
	leave
	ret
.LFE1999:
	.size	_ZNKSt17_Rb_tree_iteratorISt4pairIKSsP5ValueEEneERKS5_, .-_ZNKSt17_Rb_tree_iteratorISt4pairIKSsP5ValueEEneERKS5_
	.section	.gnu.linkonce.t._ZNKSt17_Rb_tree_iteratorISt4pairIKSsP5ValueEEptEv,"ax",@progbits
	.align 2
	.weak	_ZNKSt17_Rb_tree_iteratorISt4pairIKSsP5ValueEEptEv
	.type	_ZNKSt17_Rb_tree_iteratorISt4pairIKSsP5ValueEEptEv, @function
_ZNKSt17_Rb_tree_iteratorISt4pairIKSsP5ValueEEptEv:
.LFB2000:
	pushq	%rbp
.LCFI107:
	movq	%rsp, %rbp
.LCFI108:
	movq	%rdi, -8(%rbp)
	movq	-8(%rbp), %rax
	movq	(%rax), %rax
	addq	$32, %rax
	leave
	ret
.LFE2000:
	.size	_ZNKSt17_Rb_tree_iteratorISt4pairIKSsP5ValueEEptEv, .-_ZNKSt17_Rb_tree_iteratorISt4pairIKSsP5ValueEEptEv
	.section	.gnu.linkonce.t._ZNSt3mapISsP5ValueSt4lessISsESaISt4pairIKSsS1_EEE5clearEv,"ax",@progbits
	.align 2
	.weak	_ZNSt3mapISsP5ValueSt4lessISsESaISt4pairIKSsS1_EEE5clearEv
	.type	_ZNSt3mapISsP5ValueSt4lessISsESaISt4pairIKSsS1_EEE5clearEv, @function
_ZNSt3mapISsP5ValueSt4lessISsESaISt4pairIKSsS1_EEE5clearEv:
.LFB2001:
	pushq	%rbp
.LCFI109:
	movq	%rsp, %rbp
.LCFI110:
	subq	$16, %rsp
.LCFI111:
	movq	%rdi, -8(%rbp)
	movq	-8(%rbp), %rdi
	call	_ZNSt8_Rb_treeISsSt4pairIKSsP5ValueESt10_Select1stIS4_ESt4lessISsESaIS4_EE5clearEv
	leave
	ret
.LFE2001:
	.size	_ZNSt3mapISsP5ValueSt4lessISsESaISt4pairIKSsS1_EEE5clearEv, .-_ZNSt3mapISsP5ValueSt4lessISsESaISt4pairIKSsS1_EEE5clearEv
	.section	.gnu.linkonce.t._ZNSt3mapISsP5ValueSt4lessISsESaISt4pairIKSsS1_EEEixERS5_,"ax",@progbits
	.align 2
	.weak	_ZNSt3mapISsP5ValueSt4lessISsESaISt4pairIKSsS1_EEEixERS5_
	.type	_ZNSt3mapISsP5ValueSt4lessISsESaISt4pairIKSsS1_EEEixERS5_, @function
_ZNSt3mapISsP5ValueSt4lessISsESaISt4pairIKSsS1_EEEixERS5_:
.LFB2002:
	pushq	%rbp
.LCFI112:
	movq	%rsp, %rbp
.LCFI113:
	pushq	%rbx
.LCFI114:
	subq	$120, %rsp
.LCFI115:
	movq	%rdi, -24(%rbp)
	movq	%rsi, -32(%rbp)
	movq	-32(%rbp), %rsi
	movq	-24(%rbp), %rdi
.LEHB70:
	call	_ZNSt3mapISsP5ValueSt4lessISsESaISt4pairIKSsS1_EEE11lower_boundERS5_
	movq	%rax, -48(%rbp)
	movb	$0, -105(%rbp)
	movq	-24(%rbp), %rdi
	call	_ZNSt3mapISsP5ValueSt4lessISsESaISt4pairIKSsS1_EEE3endEv
	movq	%rax, -56(%rbp)
	leaq	-56(%rbp), %rsi
	leaq	-48(%rbp), %rdi
	call	_ZNKSt17_Rb_tree_iteratorISt4pairIKSsP5ValueEEeqERKS5_
	testb	%al, %al
	jne	.L252
	leaq	-48(%rbp), %rdi
	call	_ZNKSt17_Rb_tree_iteratorISt4pairIKSsP5ValueEEdeEv
	movq	%rax, %rbx
	movq	-24(%rbp), %rdi
	call	_ZNKSt3mapISsP5ValueSt4lessISsESaISt4pairIKSsS1_EEE8key_compEv
	movb	%al, -57(%rbp)
	leaq	-57(%rbp), %rdi
	movq	-32(%rbp), %rsi
	movq	%rbx, %rdx
	call	_ZNKSt4lessISsEclERKSsS2_
	testb	%al, %al
	jne	.L252
	jmp	.L251
.L252:
	movb	$1, -105(%rbp)
.L251:
	cmpb	$0, -105(%rbp)
	je	.L250
	movq	$0, -104(%rbp)
	leaq	-104(%rbp), %rdx
	movq	-32(%rbp), %rsi
	leaq	-96(%rbp), %rdi
	call	_ZNSt4pairIKSsP5ValueEC1ERS0_RKS2_
.LEHE70:
	leaq	-96(%rbp), %rdx
	movq	-48(%rbp), %rsi
	movq	-24(%rbp), %rdi
.LEHB71:
	call	_ZNSt3mapISsP5ValueSt4lessISsESaISt4pairIKSsS1_EEE6insertESt17_Rb_tree_iteratorIS6_ERKS6_
.LEHE71:
	movq	%rax, -72(%rbp)
	movq	-72(%rbp), %rax
	movq	%rax, -48(%rbp)
	jmp	.L254
.L257:
	movq	%rax, -120(%rbp)
.L253:
	movq	-120(%rbp), %rbx
	leaq	-96(%rbp), %rdi
	call	_ZNSt4pairIKSsP5ValueED1Ev
	movq	%rbx, -120(%rbp)
.L255:
	movq	-120(%rbp), %rdi
.LEHB72:
	call	_Unwind_Resume
.L254:
	leaq	-96(%rbp), %rdi
	call	_ZNSt4pairIKSsP5ValueED1Ev
.L250:
	leaq	-48(%rbp), %rdi
	call	_ZNKSt17_Rb_tree_iteratorISt4pairIKSsP5ValueEEdeEv
.LEHE72:
	addq	$8, %rax
	addq	$120, %rsp
	popq	%rbx
	leave
	ret
.LFE2002:
	.size	_ZNSt3mapISsP5ValueSt4lessISsESaISt4pairIKSsS1_EEEixERS5_, .-_ZNSt3mapISsP5ValueSt4lessISsESaISt4pairIKSsS1_EEEixERS5_
	.section	.gcc_except_table
.LLSDA2002:
	.byte	0xff
	.byte	0xff
	.byte	0x1
	.uleb128 .LLSDACSE2002-.LLSDACSB2002
.LLSDACSB2002:
	.uleb128 .LEHB70-.LFB2002
	.uleb128 .LEHE70-.LEHB70
	.uleb128 0x0
	.uleb128 0x0
	.uleb128 .LEHB71-.LFB2002
	.uleb128 .LEHE71-.LEHB71
	.uleb128 .L257-.LFB2002
	.uleb128 0x0
	.uleb128 .LEHB72-.LFB2002
	.uleb128 .LEHE72-.LEHB72
	.uleb128 0x0
	.uleb128 0x0
.LLSDACSE2002:
	.section	.gnu.linkonce.t._ZNSt3mapISsP5ValueSt4lessISsESaISt4pairIKSsS1_EEEixERS5_
	.section	.gnu.linkonce.t._ZNSt4pairIKSsP5ValueED1Ev,"ax",@progbits
	.align 2
	.weak	_ZNSt4pairIKSsP5ValueED1Ev
	.type	_ZNSt4pairIKSsP5ValueED1Ev, @function
_ZNSt4pairIKSsP5ValueED1Ev:
.LFB2005:
	pushq	%rbp
.LCFI116:
	movq	%rsp, %rbp
.LCFI117:
	subq	$16, %rsp
.LCFI118:
	movq	%rdi, -8(%rbp)
.L260:
	movq	-8(%rbp), %rdi
	call	_ZNSsD1Ev
	leave
	ret
.LFE2005:
	.size	_ZNSt4pairIKSsP5ValueED1Ev, .-_ZNSt4pairIKSsP5ValueED1Ev
	.section	.gnu.linkonce.t._ZNSaISt4pairIKSsP5ValueEEC1Ev,"ax",@progbits
	.align 2
	.weak	_ZNSaISt4pairIKSsP5ValueEEC1Ev
	.type	_ZNSaISt4pairIKSsP5ValueEEC1Ev, @function
_ZNSaISt4pairIKSsP5ValueEEC1Ev:
.LFB2030:
	pushq	%rbp
.LCFI119:
	movq	%rsp, %rbp
.LCFI120:
	subq	$16, %rsp
.LCFI121:
	movq	%rdi, -8(%rbp)
	movq	-8(%rbp), %rdi
	call	_ZN9__gnu_cxx13new_allocatorISt4pairIKSsP5ValueEEC2Ev
	leave
	ret
.L264:
.L266:
.LFE2030:
	.size	_ZNSaISt4pairIKSsP5ValueEEC1Ev, .-_ZNSaISt4pairIKSsP5ValueEEC1Ev
	.section	.gnu.linkonce.t._ZNSaISt4pairIKSsP5ValueEED1Ev,"ax",@progbits
	.align 2
	.weak	_ZNSaISt4pairIKSsP5ValueEED1Ev
	.type	_ZNSaISt4pairIKSsP5ValueEED1Ev, @function
_ZNSaISt4pairIKSsP5ValueEED1Ev:
.LFB2033:
	pushq	%rbp
.LCFI122:
	movq	%rsp, %rbp
.LCFI123:
	subq	$16, %rsp
.LCFI124:
	movq	%rdi, -8(%rbp)
.L270:
	movq	-8(%rbp), %rdi
	call	_ZN9__gnu_cxx13new_allocatorISt4pairIKSsP5ValueEED2Ev
	leave
	ret
.L273:
.LFE2033:
	.size	_ZNSaISt4pairIKSsP5ValueEED1Ev, .-_ZNSaISt4pairIKSsP5ValueEED1Ev
	.section	.gnu.linkonce.t._ZNSt8_Rb_treeISsSt4pairIKSsP5ValueESt10_Select1stIS4_ESt4lessISsESaIS4_EEC1ERKS8_RKS9_,"ax",@progbits
	.align 2
	.weak	_ZNSt8_Rb_treeISsSt4pairIKSsP5ValueESt10_Select1stIS4_ESt4lessISsESaIS4_EEC1ERKS8_RKS9_
	.type	_ZNSt8_Rb_treeISsSt4pairIKSsP5ValueESt10_Select1stIS4_ESt4lessISsESaIS4_EEC1ERKS8_RKS9_, @function
_ZNSt8_Rb_treeISsSt4pairIKSsP5ValueESt10_Select1stIS4_ESt4lessISsESaIS4_EEC1ERKS8_RKS9_:
.LFB2039:
	pushq	%rbp
.LCFI125:
	movq	%rsp, %rbp
.LCFI126:
	pushq	%rbx
.LCFI127:
	subq	$72, %rsp
.LCFI128:
	movq	%rdi, -24(%rbp)
	movq	%rsi, -32(%rbp)
	movq	%rdx, -40(%rbp)
	movq	-40(%rbp), %rsi
	leaq	-64(%rbp), %rdi
	call	_ZNSaISt13_Rb_tree_nodeISt4pairIKSsP5ValueEEEC1IS4_EERKSaIT_E
	leaq	-64(%rbp), %rsi
	movq	-32(%rbp), %rdx
	movq	-24(%rbp), %rdi
.LEHB73:
	call	_ZNSt8_Rb_treeISsSt4pairIKSsP5ValueESt10_Select1stIS4_ESt4lessISsESaIS4_EE13_Rb_tree_implIS8_Lb0EEC1ERKSaISt13_Rb_tree_nodeIS4_EERKS8_
.LEHE73:
	jmp	.L277
.L282:
	movq	%rax, -72(%rbp)
.L276:
	movq	-72(%rbp), %rbx
	leaq	-64(%rbp), %rdi
	call	_ZNSaISt13_Rb_tree_nodeISt4pairIKSsP5ValueEEED1Ev
	movq	%rbx, -72(%rbp)
.L278:
	movq	-72(%rbp), %rdi
.LEHB74:
	call	_Unwind_Resume
.LEHE74:
.L277:
	leaq	-64(%rbp), %rdi
	call	_ZNSaISt13_Rb_tree_nodeISt4pairIKSsP5ValueEEED1Ev
	addq	$72, %rsp
	popq	%rbx
	leave
	ret
.L280:
.LFE2039:
	.size	_ZNSt8_Rb_treeISsSt4pairIKSsP5ValueESt10_Select1stIS4_ESt4lessISsESaIS4_EEC1ERKS8_RKS9_, .-_ZNSt8_Rb_treeISsSt4pairIKSsP5ValueESt10_Select1stIS4_ESt4lessISsESaIS4_EEC1ERKS8_RKS9_
	.section	.gcc_except_table
.LLSDA2039:
	.byte	0xff
	.byte	0xff
	.byte	0x1
	.uleb128 .LLSDACSE2039-.LLSDACSB2039
.LLSDACSB2039:
	.uleb128 .LEHB73-.LFB2039
	.uleb128 .LEHE73-.LEHB73
	.uleb128 .L282-.LFB2039
	.uleb128 0x0
	.uleb128 .LEHB74-.LFB2039
	.uleb128 .LEHE74-.LEHB74
	.uleb128 0x0
	.uleb128 0x0
.LLSDACSE2039:
	.section	.gnu.linkonce.t._ZNSt8_Rb_treeISsSt4pairIKSsP5ValueESt10_Select1stIS4_ESt4lessISsESaIS4_EEC1ERKS8_RKS9_
	.section	.gnu.linkonce.t._ZNSaISt13_Rb_tree_nodeISt4pairIKSsP5ValueEEED2Ev,"ax",@progbits
	.align 2
	.weak	_ZNSaISt13_Rb_tree_nodeISt4pairIKSsP5ValueEEED2Ev
	.type	_ZNSaISt13_Rb_tree_nodeISt4pairIKSsP5ValueEEED2Ev, @function
_ZNSaISt13_Rb_tree_nodeISt4pairIKSsP5ValueEEED2Ev:
.LFB2041:
	pushq	%rbp
.LCFI129:
	movq	%rsp, %rbp
.LCFI130:
	subq	$16, %rsp
.LCFI131:
	movq	%rdi, -8(%rbp)
.L285:
	movq	-8(%rbp), %rdi
	call	_ZN9__gnu_cxx13new_allocatorISt13_Rb_tree_nodeISt4pairIKSsP5ValueEEED2Ev
	leave
	ret
.L288:
.LFE2041:
	.size	_ZNSaISt13_Rb_tree_nodeISt4pairIKSsP5ValueEEED2Ev, .-_ZNSaISt13_Rb_tree_nodeISt4pairIKSsP5ValueEEED2Ev
	.section	.gnu.linkonce.t._ZNSaISt13_Rb_tree_nodeISt4pairIKSsP5ValueEEED1Ev,"ax",@progbits
	.align 2
	.weak	_ZNSaISt13_Rb_tree_nodeISt4pairIKSsP5ValueEEED1Ev
	.type	_ZNSaISt13_Rb_tree_nodeISt4pairIKSsP5ValueEEED1Ev, @function
_ZNSaISt13_Rb_tree_nodeISt4pairIKSsP5ValueEEED1Ev:
.LFB2042:
	pushq	%rbp
.LCFI132:
	movq	%rsp, %rbp
.LCFI133:
	subq	$16, %rsp
.LCFI134:
	movq	%rdi, -8(%rbp)
.L292:
	movq	-8(%rbp), %rdi
	call	_ZN9__gnu_cxx13new_allocatorISt13_Rb_tree_nodeISt4pairIKSsP5ValueEEED2Ev
	leave
	ret
.L295:
.LFE2042:
	.size	_ZNSaISt13_Rb_tree_nodeISt4pairIKSsP5ValueEEED1Ev, .-_ZNSaISt13_Rb_tree_nodeISt4pairIKSsP5ValueEEED1Ev
	.section	.gnu.linkonce.t._ZNSt8_Rb_treeISsSt4pairIKSsP5ValueESt10_Select1stIS4_ESt4lessISsESaIS4_EE8_M_eraseEPSt13_Rb_tree_nodeIS4_E,"ax",@progbits
	.align 2
	.weak	_ZNSt8_Rb_treeISsSt4pairIKSsP5ValueESt10_Select1stIS4_ESt4lessISsESaIS4_EE8_M_eraseEPSt13_Rb_tree_nodeIS4_E
	.type	_ZNSt8_Rb_treeISsSt4pairIKSsP5ValueESt10_Select1stIS4_ESt4lessISsESaIS4_EE8_M_eraseEPSt13_Rb_tree_nodeIS4_E, @function
_ZNSt8_Rb_treeISsSt4pairIKSsP5ValueESt10_Select1stIS4_ESt4lessISsESaIS4_EE8_M_eraseEPSt13_Rb_tree_nodeIS4_E:
.LFB2043:
	pushq	%rbp
.LCFI135:
	movq	%rsp, %rbp
.LCFI136:
	subq	$32, %rsp
.LCFI137:
	movq	%rdi, -8(%rbp)
	movq	%rsi, -16(%rbp)
.L298:
	cmpq	$0, -16(%rbp)
	je	.L297
	movq	-16(%rbp), %rdi
	call	_ZNSt8_Rb_treeISsSt4pairIKSsP5ValueESt10_Select1stIS4_ESt4lessISsESaIS4_EE8_S_rightEPSt18_Rb_tree_node_base
	movq	%rax, %rsi
	movq	-8(%rbp), %rdi
	call	_ZNSt8_Rb_treeISsSt4pairIKSsP5ValueESt10_Select1stIS4_ESt4lessISsESaIS4_EE8_M_eraseEPSt13_Rb_tree_nodeIS4_E
	movq	-16(%rbp), %rdi
	call	_ZNSt8_Rb_treeISsSt4pairIKSsP5ValueESt10_Select1stIS4_ESt4lessISsESaIS4_EE7_S_leftEPSt18_Rb_tree_node_base
	movq	%rax, -24(%rbp)
	movq	-16(%rbp), %rsi
	movq	-8(%rbp), %rdi
	call	_ZNSt8_Rb_treeISsSt4pairIKSsP5ValueESt10_Select1stIS4_ESt4lessISsESaIS4_EE12destroy_nodeEPSt13_Rb_tree_nodeIS4_E
	movq	-24(%rbp), %rax
	movq	%rax, -16(%rbp)
	jmp	.L298
.L297:
	leave
	ret
.LFE2043:
	.size	_ZNSt8_Rb_treeISsSt4pairIKSsP5ValueESt10_Select1stIS4_ESt4lessISsESaIS4_EE8_M_eraseEPSt13_Rb_tree_nodeIS4_E, .-_ZNSt8_Rb_treeISsSt4pairIKSsP5ValueESt10_Select1stIS4_ESt4lessISsESaIS4_EE8_M_eraseEPSt13_Rb_tree_nodeIS4_E
	.section	.gnu.linkonce.t._ZNSt8_Rb_treeISsSt4pairIKSsP5ValueESt10_Select1stIS4_ESt4lessISsESaIS4_EE8_M_beginEv,"ax",@progbits
	.align 2
	.weak	_ZNSt8_Rb_treeISsSt4pairIKSsP5ValueESt10_Select1stIS4_ESt4lessISsESaIS4_EE8_M_beginEv
	.type	_ZNSt8_Rb_treeISsSt4pairIKSsP5ValueESt10_Select1stIS4_ESt4lessISsESaIS4_EE8_M_beginEv, @function
_ZNSt8_Rb_treeISsSt4pairIKSsP5ValueESt10_Select1stIS4_ESt4lessISsESaIS4_EE8_M_beginEv:
.LFB2044:
	pushq	%rbp
.LCFI138:
	movq	%rsp, %rbp
.LCFI139:
	movq	%rdi, -8(%rbp)
	movq	-8(%rbp), %rax
	movq	16(%rax), %rax
	leave
	ret
.LFE2044:
	.size	_ZNSt8_Rb_treeISsSt4pairIKSsP5ValueESt10_Select1stIS4_ESt4lessISsESaIS4_EE8_M_beginEv, .-_ZNSt8_Rb_treeISsSt4pairIKSsP5ValueESt10_Select1stIS4_ESt4lessISsESaIS4_EE8_M_beginEv
	.section	.gnu.linkonce.t._ZNKSt8_Rb_treeISsSt4pairIKSsP5ValueESt10_Select1stIS4_ESt4lessISsESaIS4_EE4sizeEv,"ax",@progbits
	.align 2
	.weak	_ZNKSt8_Rb_treeISsSt4pairIKSsP5ValueESt10_Select1stIS4_ESt4lessISsESaIS4_EE4sizeEv
	.type	_ZNKSt8_Rb_treeISsSt4pairIKSsP5ValueESt10_Select1stIS4_ESt4lessISsESaIS4_EE4sizeEv, @function
_ZNKSt8_Rb_treeISsSt4pairIKSsP5ValueESt10_Select1stIS4_ESt4lessISsESaIS4_EE4sizeEv:
.LFB2047:
	pushq	%rbp
.LCFI140:
	movq	%rsp, %rbp
.LCFI141:
	movq	%rdi, -8(%rbp)
	movq	-8(%rbp), %rax
	movq	40(%rax), %rax
	leave
	ret
.LFE2047:
	.size	_ZNKSt8_Rb_treeISsSt4pairIKSsP5ValueESt10_Select1stIS4_ESt4lessISsESaIS4_EE4sizeEv, .-_ZNKSt8_Rb_treeISsSt4pairIKSsP5ValueESt10_Select1stIS4_ESt4lessISsESaIS4_EE4sizeEv
	.section	.gnu.linkonce.t._ZNSt8_Rb_treeISsSt4pairIKSsP5ValueESt10_Select1stIS4_ESt4lessISsESaIS4_EE4findERS1_,"ax",@progbits
	.align 2
	.weak	_ZNSt8_Rb_treeISsSt4pairIKSsP5ValueESt10_Select1stIS4_ESt4lessISsESaIS4_EE4findERS1_
	.type	_ZNSt8_Rb_treeISsSt4pairIKSsP5ValueESt10_Select1stIS4_ESt4lessISsESaIS4_EE4findERS1_, @function
_ZNSt8_Rb_treeISsSt4pairIKSsP5ValueESt10_Select1stIS4_ESt4lessISsESaIS4_EE4findERS1_:
.LFB2048:
	pushq	%rbp
.LCFI142:
	movq	%rsp, %rbp
.LCFI143:
	subq	$80, %rsp
.LCFI144:
	movq	%rdi, -8(%rbp)
	movq	%rsi, -16(%rbp)
	movq	-8(%rbp), %rdi
	call	_ZNSt8_Rb_treeISsSt4pairIKSsP5ValueESt10_Select1stIS4_ESt4lessISsESaIS4_EE8_M_beginEv
	movq	%rax, -24(%rbp)
	movq	-8(%rbp), %rdi
	call	_ZNSt8_Rb_treeISsSt4pairIKSsP5ValueESt10_Select1stIS4_ESt4lessISsESaIS4_EE6_M_endEv
	movq	%rax, -32(%rbp)
.L303:
	cmpq	$0, -24(%rbp)
	je	.L304
	movq	-24(%rbp), %rdi
	call	_ZNSt8_Rb_treeISsSt4pairIKSsP5ValueESt10_Select1stIS4_ESt4lessISsESaIS4_EE6_S_keyEPKSt13_Rb_tree_nodeIS4_E
	movq	%rax, %rsi
	movq	-16(%rbp), %rdx
	movq	-8(%rbp), %rdi
	call	_ZNKSt4lessISsEclERKSsS2_
	testb	%al, %al
	jne	.L305
	movq	-24(%rbp), %rax
	movq	%rax, -32(%rbp)
	movq	-24(%rbp), %rdi
	call	_ZNSt8_Rb_treeISsSt4pairIKSsP5ValueESt10_Select1stIS4_ESt4lessISsESaIS4_EE7_S_leftEPSt18_Rb_tree_node_base
	movq	%rax, -24(%rbp)
	jmp	.L303
.L305:
	movq	-24(%rbp), %rdi
	call	_ZNSt8_Rb_treeISsSt4pairIKSsP5ValueESt10_Select1stIS4_ESt4lessISsESaIS4_EE8_S_rightEPSt18_Rb_tree_node_base
	movq	%rax, -24(%rbp)
	jmp	.L303
.L304:
	movq	-32(%rbp), %rsi
	leaq	-48(%rbp), %rdi
	call	_ZNSt17_Rb_tree_iteratorISt4pairIKSsP5ValueEEC1EPSt13_Rb_tree_nodeIS4_E
	movq	-8(%rbp), %rdi
	call	_ZNSt8_Rb_treeISsSt4pairIKSsP5ValueESt10_Select1stIS4_ESt4lessISsESaIS4_EE3endEv
	movq	%rax, -64(%rbp)
	leaq	-64(%rbp), %rsi
	leaq	-48(%rbp), %rdi
	call	_ZNKSt17_Rb_tree_iteratorISt4pairIKSsP5ValueEEeqERKS5_
	testb	%al, %al
	jne	.L309
	movq	-48(%rbp), %rdi
	call	_ZNSt8_Rb_treeISsSt4pairIKSsP5ValueESt10_Select1stIS4_ESt4lessISsESaIS4_EE6_S_keyEPKSt18_Rb_tree_node_base
	movq	-16(%rbp), %rsi
	movq	-8(%rbp), %rdi
	movq	%rax, %rdx
	call	_ZNKSt4lessISsEclERKSsS2_
	testb	%al, %al
	jne	.L309
	jmp	.L307
.L309:
	movq	-8(%rbp), %rdi
	call	_ZNSt8_Rb_treeISsSt4pairIKSsP5ValueESt10_Select1stIS4_ESt4lessISsESaIS4_EE3endEv
	movq	%rax, -72(%rbp)
	jmp	.L308
.L307:
	movq	-48(%rbp), %rax
	movq	%rax, -72(%rbp)
.L308:
	movq	-72(%rbp), %rax
	movq	%rax, -56(%rbp)
	movq	-56(%rbp), %rax
	leave
	ret
.LFE2048:
	.size	_ZNSt8_Rb_treeISsSt4pairIKSsP5ValueESt10_Select1stIS4_ESt4lessISsESaIS4_EE4findERS1_, .-_ZNSt8_Rb_treeISsSt4pairIKSsP5ValueESt10_Select1stIS4_ESt4lessISsESaIS4_EE4findERS1_
	.section	.gnu.linkonce.t._ZNSt8_Rb_treeISsSt4pairIKSsP5ValueESt10_Select1stIS4_ESt4lessISsESaIS4_EE3endEv,"ax",@progbits
	.align 2
	.weak	_ZNSt8_Rb_treeISsSt4pairIKSsP5ValueESt10_Select1stIS4_ESt4lessISsESaIS4_EE3endEv
	.type	_ZNSt8_Rb_treeISsSt4pairIKSsP5ValueESt10_Select1stIS4_ESt4lessISsESaIS4_EE3endEv, @function
_ZNSt8_Rb_treeISsSt4pairIKSsP5ValueESt10_Select1stIS4_ESt4lessISsESaIS4_EE3endEv:
.LFB2049:
	pushq	%rbp
.LCFI145:
	movq	%rsp, %rbp
.LCFI146:
	subq	$16, %rsp
.LCFI147:
	movq	%rdi, -8(%rbp)
	movq	-8(%rbp), %rsi
	addq	$8, %rsi
	leaq	-16(%rbp), %rdi
	call	_ZNSt17_Rb_tree_iteratorISt4pairIKSsP5ValueEEC1EPSt13_Rb_tree_nodeIS4_E
	movq	-16(%rbp), %rax
	leave
	ret
.LFE2049:
	.size	_ZNSt8_Rb_treeISsSt4pairIKSsP5ValueESt10_Select1stIS4_ESt4lessISsESaIS4_EE3endEv, .-_ZNSt8_Rb_treeISsSt4pairIKSsP5ValueESt10_Select1stIS4_ESt4lessISsESaIS4_EE3endEv
	.section	.gnu.linkonce.t._ZNSt8_Rb_treeISsSt4pairIKSsP5ValueESt10_Select1stIS4_ESt4lessISsESaIS4_EE5clearEv,"ax",@progbits
	.align 2
	.weak	_ZNSt8_Rb_treeISsSt4pairIKSsP5ValueESt10_Select1stIS4_ESt4lessISsESaIS4_EE5clearEv
	.type	_ZNSt8_Rb_treeISsSt4pairIKSsP5ValueESt10_Select1stIS4_ESt4lessISsESaIS4_EE5clearEv, @function
_ZNSt8_Rb_treeISsSt4pairIKSsP5ValueESt10_Select1stIS4_ESt4lessISsESaIS4_EE5clearEv:
.LFB2050:
	pushq	%rbp
.LCFI148:
	movq	%rsp, %rbp
.LCFI149:
	pushq	%rbx
.LCFI150:
	subq	$8, %rsp
.LCFI151:
	movq	%rdi, -16(%rbp)
	movq	-16(%rbp), %rdi
	call	_ZNSt8_Rb_treeISsSt4pairIKSsP5ValueESt10_Select1stIS4_ESt4lessISsESaIS4_EE8_M_beginEv
	movq	%rax, %rsi
	movq	-16(%rbp), %rdi
	call	_ZNSt8_Rb_treeISsSt4pairIKSsP5ValueESt10_Select1stIS4_ESt4lessISsESaIS4_EE8_M_eraseEPSt13_Rb_tree_nodeIS4_E
	movq	-16(%rbp), %rdi
	call	_ZNSt8_Rb_treeISsSt4pairIKSsP5ValueESt10_Select1stIS4_ESt4lessISsESaIS4_EE11_M_leftmostEv
	movq	%rax, %rbx
	movq	-16(%rbp), %rdi
	call	_ZNSt8_Rb_treeISsSt4pairIKSsP5ValueESt10_Select1stIS4_ESt4lessISsESaIS4_EE6_M_endEv
	movq	%rax, (%rbx)
	movq	-16(%rbp), %rdi
	call	_ZNSt8_Rb_treeISsSt4pairIKSsP5ValueESt10_Select1stIS4_ESt4lessISsESaIS4_EE7_M_rootEv
	movq	$0, (%rax)
	movq	-16(%rbp), %rdi
	call	_ZNSt8_Rb_treeISsSt4pairIKSsP5ValueESt10_Select1stIS4_ESt4lessISsESaIS4_EE12_M_rightmostEv
	movq	%rax, %rbx
	movq	-16(%rbp), %rdi
	call	_ZNSt8_Rb_treeISsSt4pairIKSsP5ValueESt10_Select1stIS4_ESt4lessISsESaIS4_EE6_M_endEv
	movq	%rax, (%rbx)
	movq	-16(%rbp), %rax
	movq	$0, 40(%rax)
	addq	$8, %rsp
	popq	%rbx
	leave
	ret
.LFE2050:
	.size	_ZNSt8_Rb_treeISsSt4pairIKSsP5ValueESt10_Select1stIS4_ESt4lessISsESaIS4_EE5clearEv, .-_ZNSt8_Rb_treeISsSt4pairIKSsP5ValueESt10_Select1stIS4_ESt4lessISsESaIS4_EE5clearEv
	.section	.gnu.linkonce.t._ZNSt3mapISsP5ValueSt4lessISsESaISt4pairIKSsS1_EEE11lower_boundERS5_,"ax",@progbits
	.align 2
	.weak	_ZNSt3mapISsP5ValueSt4lessISsESaISt4pairIKSsS1_EEE11lower_boundERS5_
	.type	_ZNSt3mapISsP5ValueSt4lessISsESaISt4pairIKSsS1_EEE11lower_boundERS5_, @function
_ZNSt3mapISsP5ValueSt4lessISsESaISt4pairIKSsS1_EEE11lower_boundERS5_:
.LFB2051:
	pushq	%rbp
.LCFI152:
	movq	%rsp, %rbp
.LCFI153:
	subq	$32, %rsp
.LCFI154:
	movq	%rdi, -8(%rbp)
	movq	%rsi, -16(%rbp)
	movq	-16(%rbp), %rsi
	movq	-8(%rbp), %rdi
	call	_ZNSt8_Rb_treeISsSt4pairIKSsP5ValueESt10_Select1stIS4_ESt4lessISsESaIS4_EE11lower_boundERS1_
	movq	%rax, -24(%rbp)
	movq	-24(%rbp), %rax
	leave
	ret
.LFE2051:
	.size	_ZNSt3mapISsP5ValueSt4lessISsESaISt4pairIKSsS1_EEE11lower_boundERS5_, .-_ZNSt3mapISsP5ValueSt4lessISsESaISt4pairIKSsS1_EEE11lower_boundERS5_
	.section	.gnu.linkonce.t._ZNKSt3mapISsP5ValueSt4lessISsESaISt4pairIKSsS1_EEE8key_compEv,"ax",@progbits
	.align 2
	.weak	_ZNKSt3mapISsP5ValueSt4lessISsESaISt4pairIKSsS1_EEE8key_compEv
	.type	_ZNKSt3mapISsP5ValueSt4lessISsESaISt4pairIKSsS1_EEE8key_compEv, @function
_ZNKSt3mapISsP5ValueSt4lessISsESaISt4pairIKSsS1_EEE8key_compEv:
.LFB2052:
	pushq	%rbp
.LCFI155:
	movq	%rsp, %rbp
.LCFI156:
	subq	$16, %rsp
.LCFI157:
	movq	%rdi, -8(%rbp)
	movq	-8(%rbp), %rdi
	call	_ZNKSt8_Rb_treeISsSt4pairIKSsP5ValueESt10_Select1stIS4_ESt4lessISsESaIS4_EE8key_compEv
	movb	%al, -9(%rbp)
	movzbl	-9(%rbp), %eax
	leave
	ret
.LFE2052:
	.size	_ZNKSt3mapISsP5ValueSt4lessISsESaISt4pairIKSsS1_EEE8key_compEv, .-_ZNKSt3mapISsP5ValueSt4lessISsESaISt4pairIKSsS1_EEE8key_compEv
	.section	.gnu.linkonce.t._ZNKSt17_Rb_tree_iteratorISt4pairIKSsP5ValueEEdeEv,"ax",@progbits
	.align 2
	.weak	_ZNKSt17_Rb_tree_iteratorISt4pairIKSsP5ValueEEdeEv
	.type	_ZNKSt17_Rb_tree_iteratorISt4pairIKSsP5ValueEEdeEv, @function
_ZNKSt17_Rb_tree_iteratorISt4pairIKSsP5ValueEEdeEv:
.LFB2053:
	pushq	%rbp
.LCFI158:
	movq	%rsp, %rbp
.LCFI159:
	movq	%rdi, -8(%rbp)
	movq	-8(%rbp), %rax
	movq	(%rax), %rax
	addq	$32, %rax
	leave
	ret
.LFE2053:
	.size	_ZNKSt17_Rb_tree_iteratorISt4pairIKSsP5ValueEEdeEv, .-_ZNKSt17_Rb_tree_iteratorISt4pairIKSsP5ValueEEdeEv
	.section	.gnu.linkonce.t._ZNKSt4lessISsEclERKSsS2_,"ax",@progbits
	.align 2
	.weak	_ZNKSt4lessISsEclERKSsS2_
	.type	_ZNKSt4lessISsEclERKSsS2_, @function
_ZNKSt4lessISsEclERKSsS2_:
.LFB2054:
	pushq	%rbp
.LCFI160:
	movq	%rsp, %rbp
.LCFI161:
	subq	$32, %rsp
.LCFI162:
	movq	%rdi, -8(%rbp)
	movq	%rsi, -16(%rbp)
	movq	%rdx, -24(%rbp)
	movq	-24(%rbp), %rsi
	movq	-16(%rbp), %rdi
	call	_ZStltIcSt11char_traitsIcESaIcEEbRKSbIT_T0_T1_ES8_
	movzbl	%al, %eax
	leave
	ret
.LFE2054:
	.size	_ZNKSt4lessISsEclERKSsS2_, .-_ZNKSt4lessISsEclERKSsS2_
	.section	.gnu.linkonce.t._ZNKSt17_Rb_tree_iteratorISt4pairIKSsP5ValueEEeqERKS5_,"ax",@progbits
	.align 2
	.weak	_ZNKSt17_Rb_tree_iteratorISt4pairIKSsP5ValueEEeqERKS5_
	.type	_ZNKSt17_Rb_tree_iteratorISt4pairIKSsP5ValueEEeqERKS5_, @function
_ZNKSt17_Rb_tree_iteratorISt4pairIKSsP5ValueEEeqERKS5_:
.LFB2055:
	pushq	%rbp
.LCFI163:
	movq	%rsp, %rbp
.LCFI164:
	movq	%rdi, -8(%rbp)
	movq	%rsi, -16(%rbp)
	movq	-8(%rbp), %rax
	movq	-16(%rbp), %rdx
	movq	(%rax), %rax
	cmpq	(%rdx), %rax
	sete	%al
	movzbl	%al, %eax
	leave
	ret
.LFE2055:
	.size	_ZNKSt17_Rb_tree_iteratorISt4pairIKSsP5ValueEEeqERKS5_, .-_ZNKSt17_Rb_tree_iteratorISt4pairIKSsP5ValueEEeqERKS5_
	.section	.gnu.linkonce.t._ZNSt4pairIKSsP5ValueEC1ERS0_RKS2_,"ax",@progbits
	.align 2
	.weak	_ZNSt4pairIKSsP5ValueEC1ERS0_RKS2_
	.type	_ZNSt4pairIKSsP5ValueEC1ERS0_RKS2_, @function
_ZNSt4pairIKSsP5ValueEC1ERS0_RKS2_:
.LFB2058:
	pushq	%rbp
.LCFI165:
	movq	%rsp, %rbp
.LCFI166:
	subq	$32, %rsp
.LCFI167:
	movq	%rdi, -8(%rbp)
	movq	%rsi, -16(%rbp)
	movq	%rdx, -24(%rbp)
	movq	-16(%rbp), %rsi
	movq	-8(%rbp), %rdi
	call	_ZNSsC1ERKSs
	movq	-8(%rbp), %rdx
	movq	-24(%rbp), %rax
	movq	(%rax), %rax
	movq	%rax, 8(%rdx)
	leave
	ret
.L318:
.LFE2058:
	.size	_ZNSt4pairIKSsP5ValueEC1ERS0_RKS2_, .-_ZNSt4pairIKSsP5ValueEC1ERS0_RKS2_
	.section	.gnu.linkonce.t._ZNSt3mapISsP5ValueSt4lessISsESaISt4pairIKSsS1_EEE6insertESt17_Rb_tree_iteratorIS6_ERKS6_,"ax",@progbits
	.align 2
	.weak	_ZNSt3mapISsP5ValueSt4lessISsESaISt4pairIKSsS1_EEE6insertESt17_Rb_tree_iteratorIS6_ERKS6_
	.type	_ZNSt3mapISsP5ValueSt4lessISsESaISt4pairIKSsS1_EEE6insertESt17_Rb_tree_iteratorIS6_ERKS6_, @function
_ZNSt3mapISsP5ValueSt4lessISsESaISt4pairIKSsS1_EEE6insertESt17_Rb_tree_iteratorIS6_ERKS6_:
.LFB2059:
	pushq	%rbp
.LCFI168:
	movq	%rsp, %rbp
.LCFI169:
	subq	$32, %rsp
.LCFI170:
	movq	%rdi, -8(%rbp)
	movq	%rsi, -16(%rbp)
	movq	%rdx, -24(%rbp)
	movq	-24(%rbp), %rdx
	movq	-16(%rbp), %rsi
	movq	-8(%rbp), %rdi
	call	_ZNSt8_Rb_treeISsSt4pairIKSsP5ValueESt10_Select1stIS4_ESt4lessISsESaIS4_EE13insert_uniqueESt17_Rb_tree_iteratorIS4_ERKS4_
	movq	%rax, -32(%rbp)
	movq	-32(%rbp), %rax
	leave
	ret
.LFE2059:
	.size	_ZNSt3mapISsP5ValueSt4lessISsESaISt4pairIKSsS1_EEE6insertESt17_Rb_tree_iteratorIS6_ERKS6_, .-_ZNSt3mapISsP5ValueSt4lessISsESaISt4pairIKSsS1_EEE6insertESt17_Rb_tree_iteratorIS6_ERKS6_
	.section	.gnu.linkonce.t._ZN9__gnu_cxx13new_allocatorISt4pairIKSsP5ValueEEC2Ev,"ax",@progbits
	.align 2
	.weak	_ZN9__gnu_cxx13new_allocatorISt4pairIKSsP5ValueEEC2Ev
	.type	_ZN9__gnu_cxx13new_allocatorISt4pairIKSsP5ValueEEC2Ev, @function
_ZN9__gnu_cxx13new_allocatorISt4pairIKSsP5ValueEEC2Ev:
.LFB2062:
	pushq	%rbp
.LCFI171:
	movq	%rsp, %rbp
.LCFI172:
	movq	%rdi, -8(%rbp)
	leave
	ret
.L322:
.LFE2062:
	.size	_ZN9__gnu_cxx13new_allocatorISt4pairIKSsP5ValueEEC2Ev, .-_ZN9__gnu_cxx13new_allocatorISt4pairIKSsP5ValueEEC2Ev
	.section	.gnu.linkonce.t._ZN9__gnu_cxx13new_allocatorISt4pairIKSsP5ValueEED2Ev,"ax",@progbits
	.align 2
	.weak	_ZN9__gnu_cxx13new_allocatorISt4pairIKSsP5ValueEED2Ev
	.type	_ZN9__gnu_cxx13new_allocatorISt4pairIKSsP5ValueEED2Ev, @function
_ZN9__gnu_cxx13new_allocatorISt4pairIKSsP5ValueEED2Ev:
.LFB2065:
	pushq	%rbp
.LCFI173:
	movq	%rsp, %rbp
.LCFI174:
	movq	%rdi, -8(%rbp)
	leave
	ret
.L327:
.LFE2065:
	.size	_ZN9__gnu_cxx13new_allocatorISt4pairIKSsP5ValueEED2Ev, .-_ZN9__gnu_cxx13new_allocatorISt4pairIKSsP5ValueEED2Ev
	.section	.gnu.linkonce.t._ZNSaISt13_Rb_tree_nodeISt4pairIKSsP5ValueEEEC1IS4_EERKSaIT_E,"ax",@progbits
	.align 2
	.weak	_ZNSaISt13_Rb_tree_nodeISt4pairIKSsP5ValueEEEC1IS4_EERKSaIT_E
	.type	_ZNSaISt13_Rb_tree_nodeISt4pairIKSsP5ValueEEEC1IS4_EERKSaIT_E, @function
_ZNSaISt13_Rb_tree_nodeISt4pairIKSsP5ValueEEEC1IS4_EERKSaIT_E:
.LFB2072:
	pushq	%rbp
.LCFI175:
	movq	%rsp, %rbp
.LCFI176:
	subq	$16, %rsp
.LCFI177:
	movq	%rdi, -8(%rbp)
	movq	%rsi, -16(%rbp)
	movq	-8(%rbp), %rdi
	call	_ZN9__gnu_cxx13new_allocatorISt13_Rb_tree_nodeISt4pairIKSsP5ValueEEEC2Ev
	leave
	ret
.L330:
.L332:
.LFE2072:
	.size	_ZNSaISt13_Rb_tree_nodeISt4pairIKSsP5ValueEEEC1IS4_EERKSaIT_E, .-_ZNSaISt13_Rb_tree_nodeISt4pairIKSsP5ValueEEEC1IS4_EERKSaIT_E
	.section	.gnu.linkonce.t._ZNSt8_Rb_treeISsSt4pairIKSsP5ValueESt10_Select1stIS4_ESt4lessISsESaIS4_EE13_Rb_tree_implIS8_Lb0EEC1ERKSaISt13_Rb_tree_nodeIS4_EERKS8_,"ax",@progbits
	.align 2
	.weak	_ZNSt8_Rb_treeISsSt4pairIKSsP5ValueESt10_Select1stIS4_ESt4lessISsESaIS4_EE13_Rb_tree_implIS8_Lb0EEC1ERKSaISt13_Rb_tree_nodeIS4_EERKS8_
	.type	_ZNSt8_Rb_treeISsSt4pairIKSsP5ValueESt10_Select1stIS4_ESt4lessISsESaIS4_EE13_Rb_tree_implIS8_Lb0EEC1ERKSaISt13_Rb_tree_nodeIS4_EERKS8_, @function
_ZNSt8_Rb_treeISsSt4pairIKSsP5ValueESt10_Select1stIS4_ESt4lessISsESaIS4_EE13_Rb_tree_implIS8_Lb0EEC1ERKSaISt13_Rb_tree_nodeIS4_EERKS8_:
.LFB2075:
	pushq	%rbp
.LCFI178:
	movq	%rsp, %rbp
.LCFI179:
	subq	$32, %rsp
.LCFI180:
	movq	%rdi, -8(%rbp)
	movq	%rsi, -16(%rbp)
	movq	%rdx, -24(%rbp)
	movq	-16(%rbp), %rsi
	movq	-8(%rbp), %rdi
	call	_ZNSaISt13_Rb_tree_nodeISt4pairIKSsP5ValueEEEC2ERKS6_
	movq	-8(%rbp), %rax
	movq	$0, 40(%rax)
	movq	-8(%rbp), %rax
	movl	$0, 8(%rax)
	movq	-8(%rbp), %rax
	movq	$0, 16(%rax)
	movq	-8(%rbp), %rdx
	movq	-8(%rbp), %rax
	addq	$8, %rax
	movq	%rax, 24(%rdx)
	movq	-8(%rbp), %rdx
	movq	-8(%rbp), %rax
	addq	$8, %rax
	movq	%rax, 32(%rdx)
	leave
	ret
.L335:
.LFE2075:
	.size	_ZNSt8_Rb_treeISsSt4pairIKSsP5ValueESt10_Select1stIS4_ESt4lessISsESaIS4_EE13_Rb_tree_implIS8_Lb0EEC1ERKSaISt13_Rb_tree_nodeIS4_EERKS8_, .-_ZNSt8_Rb_treeISsSt4pairIKSsP5ValueESt10_Select1stIS4_ESt4lessISsESaIS4_EE13_Rb_tree_implIS8_Lb0EEC1ERKSaISt13_Rb_tree_nodeIS4_EERKS8_
	.section	.gnu.linkonce.t._ZN9__gnu_cxx13new_allocatorISt13_Rb_tree_nodeISt4pairIKSsP5ValueEEED2Ev,"ax",@progbits
	.align 2
	.weak	_ZN9__gnu_cxx13new_allocatorISt13_Rb_tree_nodeISt4pairIKSsP5ValueEEED2Ev
	.type	_ZN9__gnu_cxx13new_allocatorISt13_Rb_tree_nodeISt4pairIKSsP5ValueEEED2Ev, @function
_ZN9__gnu_cxx13new_allocatorISt13_Rb_tree_nodeISt4pairIKSsP5ValueEEED2Ev:
.LFB2077:
	pushq	%rbp
.LCFI181:
	movq	%rsp, %rbp
.LCFI182:
	movq	%rdi, -8(%rbp)
	leave
	ret
.L340:
.LFE2077:
	.size	_ZN9__gnu_cxx13new_allocatorISt13_Rb_tree_nodeISt4pairIKSsP5ValueEEED2Ev, .-_ZN9__gnu_cxx13new_allocatorISt13_Rb_tree_nodeISt4pairIKSsP5ValueEEED2Ev
	.section	.gnu.linkonce.t._ZNSt8_Rb_treeISsSt4pairIKSsP5ValueESt10_Select1stIS4_ESt4lessISsESaIS4_EE8_S_rightEPSt18_Rb_tree_node_base,"ax",@progbits
	.align 2
	.weak	_ZNSt8_Rb_treeISsSt4pairIKSsP5ValueESt10_Select1stIS4_ESt4lessISsESaIS4_EE8_S_rightEPSt18_Rb_tree_node_base
	.type	_ZNSt8_Rb_treeISsSt4pairIKSsP5ValueESt10_Select1stIS4_ESt4lessISsESaIS4_EE8_S_rightEPSt18_Rb_tree_node_base, @function
_ZNSt8_Rb_treeISsSt4pairIKSsP5ValueESt10_Select1stIS4_ESt4lessISsESaIS4_EE8_S_rightEPSt18_Rb_tree_node_base:
.LFB2079:
	pushq	%rbp
.LCFI183:
	movq	%rsp, %rbp
.LCFI184:
	movq	%rdi, -8(%rbp)
	movq	-8(%rbp), %rax
	movq	24(%rax), %rax
	leave
	ret
.LFE2079:
	.size	_ZNSt8_Rb_treeISsSt4pairIKSsP5ValueESt10_Select1stIS4_ESt4lessISsESaIS4_EE8_S_rightEPSt18_Rb_tree_node_base, .-_ZNSt8_Rb_treeISsSt4pairIKSsP5ValueESt10_Select1stIS4_ESt4lessISsESaIS4_EE8_S_rightEPSt18_Rb_tree_node_base
	.section	.gnu.linkonce.t._ZNSt8_Rb_treeISsSt4pairIKSsP5ValueESt10_Select1stIS4_ESt4lessISsESaIS4_EE7_S_leftEPSt18_Rb_tree_node_base,"ax",@progbits
	.align 2
	.weak	_ZNSt8_Rb_treeISsSt4pairIKSsP5ValueESt10_Select1stIS4_ESt4lessISsESaIS4_EE7_S_leftEPSt18_Rb_tree_node_base
	.type	_ZNSt8_Rb_treeISsSt4pairIKSsP5ValueESt10_Select1stIS4_ESt4lessISsESaIS4_EE7_S_leftEPSt18_Rb_tree_node_base, @function
_ZNSt8_Rb_treeISsSt4pairIKSsP5ValueESt10_Select1stIS4_ESt4lessISsESaIS4_EE7_S_leftEPSt18_Rb_tree_node_base:
.LFB2080:
	pushq	%rbp
.LCFI185:
	movq	%rsp, %rbp
.LCFI186:
	movq	%rdi, -8(%rbp)
	movq	-8(%rbp), %rax
	movq	16(%rax), %rax
	leave
	ret
.LFE2080:
	.size	_ZNSt8_Rb_treeISsSt4pairIKSsP5ValueESt10_Select1stIS4_ESt4lessISsESaIS4_EE7_S_leftEPSt18_Rb_tree_node_base, .-_ZNSt8_Rb_treeISsSt4pairIKSsP5ValueESt10_Select1stIS4_ESt4lessISsESaIS4_EE7_S_leftEPSt18_Rb_tree_node_base
	.section	.gnu.linkonce.t._ZNSt8_Rb_treeISsSt4pairIKSsP5ValueESt10_Select1stIS4_ESt4lessISsESaIS4_EE12destroy_nodeEPSt13_Rb_tree_nodeIS4_E,"ax",@progbits
	.align 2
	.weak	_ZNSt8_Rb_treeISsSt4pairIKSsP5ValueESt10_Select1stIS4_ESt4lessISsESaIS4_EE12destroy_nodeEPSt13_Rb_tree_nodeIS4_E
	.type	_ZNSt8_Rb_treeISsSt4pairIKSsP5ValueESt10_Select1stIS4_ESt4lessISsESaIS4_EE12destroy_nodeEPSt13_Rb_tree_nodeIS4_E, @function
_ZNSt8_Rb_treeISsSt4pairIKSsP5ValueESt10_Select1stIS4_ESt4lessISsESaIS4_EE12destroy_nodeEPSt13_Rb_tree_nodeIS4_E:
.LFB2081:
	pushq	%rbp
.LCFI187:
	movq	%rsp, %rbp
.LCFI188:
	subq	$16, %rsp
.LCFI189:
	movq	%rdi, -8(%rbp)
	movq	%rsi, -16(%rbp)
	movq	-16(%rbp), %rdi
	addq	$32, %rdi
	call	_ZSt8_DestroyISt4pairIKSsP5ValueEEvPT_
	movq	-16(%rbp), %rsi
	movq	-8(%rbp), %rdi
	call	_ZNSt8_Rb_treeISsSt4pairIKSsP5ValueESt10_Select1stIS4_ESt4lessISsESaIS4_EE11_M_put_nodeEPSt13_Rb_tree_nodeIS4_E
	leave
	ret
.LFE2081:
	.size	_ZNSt8_Rb_treeISsSt4pairIKSsP5ValueESt10_Select1stIS4_ESt4lessISsESaIS4_EE12destroy_nodeEPSt13_Rb_tree_nodeIS4_E, .-_ZNSt8_Rb_treeISsSt4pairIKSsP5ValueESt10_Select1stIS4_ESt4lessISsESaIS4_EE12destroy_nodeEPSt13_Rb_tree_nodeIS4_E
	.section	.gnu.linkonce.t._ZNSt8_Rb_treeISsSt4pairIKSsP5ValueESt10_Select1stIS4_ESt4lessISsESaIS4_EE6_M_endEv,"ax",@progbits
	.align 2
	.weak	_ZNSt8_Rb_treeISsSt4pairIKSsP5ValueESt10_Select1stIS4_ESt4lessISsESaIS4_EE6_M_endEv
	.type	_ZNSt8_Rb_treeISsSt4pairIKSsP5ValueESt10_Select1stIS4_ESt4lessISsESaIS4_EE6_M_endEv, @function
_ZNSt8_Rb_treeISsSt4pairIKSsP5ValueESt10_Select1stIS4_ESt4lessISsESaIS4_EE6_M_endEv:
.LFB2085:
	pushq	%rbp
.LCFI190:
	movq	%rsp, %rbp
.LCFI191:
	movq	%rdi, -8(%rbp)
	movq	-8(%rbp), %rax
	addq	$8, %rax
	leave
	ret
.LFE2085:
	.size	_ZNSt8_Rb_treeISsSt4pairIKSsP5ValueESt10_Select1stIS4_ESt4lessISsESaIS4_EE6_M_endEv, .-_ZNSt8_Rb_treeISsSt4pairIKSsP5ValueESt10_Select1stIS4_ESt4lessISsESaIS4_EE6_M_endEv
	.section	.gnu.linkonce.t._ZNSt8_Rb_treeISsSt4pairIKSsP5ValueESt10_Select1stIS4_ESt4lessISsESaIS4_EE6_S_keyEPKSt13_Rb_tree_nodeIS4_E,"ax",@progbits
	.align 2
	.weak	_ZNSt8_Rb_treeISsSt4pairIKSsP5ValueESt10_Select1stIS4_ESt4lessISsESaIS4_EE6_S_keyEPKSt13_Rb_tree_nodeIS4_E
	.type	_ZNSt8_Rb_treeISsSt4pairIKSsP5ValueESt10_Select1stIS4_ESt4lessISsESaIS4_EE6_S_keyEPKSt13_Rb_tree_nodeIS4_E, @function
_ZNSt8_Rb_treeISsSt4pairIKSsP5ValueESt10_Select1stIS4_ESt4lessISsESaIS4_EE6_S_keyEPKSt13_Rb_tree_nodeIS4_E:
.LFB2086:
	pushq	%rbp
.LCFI192:
	movq	%rsp, %rbp
.LCFI193:
	subq	$16, %rsp
.LCFI194:
	movq	%rdi, -8(%rbp)
	movq	-8(%rbp), %rdi
	call	_ZNSt8_Rb_treeISsSt4pairIKSsP5ValueESt10_Select1stIS4_ESt4lessISsESaIS4_EE8_S_valueEPKSt13_Rb_tree_nodeIS4_E
	movq	%rax, %rsi
	leaq	-9(%rbp), %rdi
	call	_ZNKSt10_Select1stISt4pairIKSsP5ValueEEclERKS4_
	leave
	ret
.LFE2086:
	.size	_ZNSt8_Rb_treeISsSt4pairIKSsP5ValueESt10_Select1stIS4_ESt4lessISsESaIS4_EE6_S_keyEPKSt13_Rb_tree_nodeIS4_E, .-_ZNSt8_Rb_treeISsSt4pairIKSsP5ValueESt10_Select1stIS4_ESt4lessISsESaIS4_EE6_S_keyEPKSt13_Rb_tree_nodeIS4_E
	.section	.gnu.linkonce.t._ZNSt17_Rb_tree_iteratorISt4pairIKSsP5ValueEEC1EPSt13_Rb_tree_nodeIS4_E,"ax",@progbits
	.align 2
	.weak	_ZNSt17_Rb_tree_iteratorISt4pairIKSsP5ValueEEC1EPSt13_Rb_tree_nodeIS4_E
	.type	_ZNSt17_Rb_tree_iteratorISt4pairIKSsP5ValueEEC1EPSt13_Rb_tree_nodeIS4_E, @function
_ZNSt17_Rb_tree_iteratorISt4pairIKSsP5ValueEEC1EPSt13_Rb_tree_nodeIS4_E:
.LFB2089:
	pushq	%rbp
.LCFI195:
	movq	%rsp, %rbp
.LCFI196:
	movq	%rdi, -8(%rbp)
	movq	%rsi, -16(%rbp)
	movq	-8(%rbp), %rdx
	movq	-16(%rbp), %rax
	movq	%rax, (%rdx)
	leave
	ret
.LFE2089:
	.size	_ZNSt17_Rb_tree_iteratorISt4pairIKSsP5ValueEEC1EPSt13_Rb_tree_nodeIS4_E, .-_ZNSt17_Rb_tree_iteratorISt4pairIKSsP5ValueEEC1EPSt13_Rb_tree_nodeIS4_E
	.section	.gnu.linkonce.t._ZNSt8_Rb_treeISsSt4pairIKSsP5ValueESt10_Select1stIS4_ESt4lessISsESaIS4_EE6_S_keyEPKSt18_Rb_tree_node_base,"ax",@progbits
	.align 2
	.weak	_ZNSt8_Rb_treeISsSt4pairIKSsP5ValueESt10_Select1stIS4_ESt4lessISsESaIS4_EE6_S_keyEPKSt18_Rb_tree_node_base
	.type	_ZNSt8_Rb_treeISsSt4pairIKSsP5ValueESt10_Select1stIS4_ESt4lessISsESaIS4_EE6_S_keyEPKSt18_Rb_tree_node_base, @function
_ZNSt8_Rb_treeISsSt4pairIKSsP5ValueESt10_Select1stIS4_ESt4lessISsESaIS4_EE6_S_keyEPKSt18_Rb_tree_node_base:
.LFB2090:
	pushq	%rbp
.LCFI197:
	movq	%rsp, %rbp
.LCFI198:
	subq	$16, %rsp
.LCFI199:
	movq	%rdi, -8(%rbp)
	movq	-8(%rbp), %rdi
	call	_ZNSt8_Rb_treeISsSt4pairIKSsP5ValueESt10_Select1stIS4_ESt4lessISsESaIS4_EE8_S_valueEPKSt18_Rb_tree_node_base
	movq	%rax, %rsi
	leaq	-9(%rbp), %rdi
	call	_ZNKSt10_Select1stISt4pairIKSsP5ValueEEclERKS4_
	leave
	ret
.LFE2090:
	.size	_ZNSt8_Rb_treeISsSt4pairIKSsP5ValueESt10_Select1stIS4_ESt4lessISsESaIS4_EE6_S_keyEPKSt18_Rb_tree_node_base, .-_ZNSt8_Rb_treeISsSt4pairIKSsP5ValueESt10_Select1stIS4_ESt4lessISsESaIS4_EE6_S_keyEPKSt18_Rb_tree_node_base
	.section	.gnu.linkonce.t._ZNSt8_Rb_treeISsSt4pairIKSsP5ValueESt10_Select1stIS4_ESt4lessISsESaIS4_EE11_M_leftmostEv,"ax",@progbits
	.align 2
	.weak	_ZNSt8_Rb_treeISsSt4pairIKSsP5ValueESt10_Select1stIS4_ESt4lessISsESaIS4_EE11_M_leftmostEv
	.type	_ZNSt8_Rb_treeISsSt4pairIKSsP5ValueESt10_Select1stIS4_ESt4lessISsESaIS4_EE11_M_leftmostEv, @function
_ZNSt8_Rb_treeISsSt4pairIKSsP5ValueESt10_Select1stIS4_ESt4lessISsESaIS4_EE11_M_leftmostEv:
.LFB2091:
	pushq	%rbp
.LCFI200:
	movq	%rsp, %rbp
.LCFI201:
	movq	%rdi, -8(%rbp)
	movq	-8(%rbp), %rax
	addq	$24, %rax
	leave
	ret
.LFE2091:
	.size	_ZNSt8_Rb_treeISsSt4pairIKSsP5ValueESt10_Select1stIS4_ESt4lessISsESaIS4_EE11_M_leftmostEv, .-_ZNSt8_Rb_treeISsSt4pairIKSsP5ValueESt10_Select1stIS4_ESt4lessISsESaIS4_EE11_M_leftmostEv
	.section	.gnu.linkonce.t._ZNSt8_Rb_treeISsSt4pairIKSsP5ValueESt10_Select1stIS4_ESt4lessISsESaIS4_EE7_M_rootEv,"ax",@progbits
	.align 2
	.weak	_ZNSt8_Rb_treeISsSt4pairIKSsP5ValueESt10_Select1stIS4_ESt4lessISsESaIS4_EE7_M_rootEv
	.type	_ZNSt8_Rb_treeISsSt4pairIKSsP5ValueESt10_Select1stIS4_ESt4lessISsESaIS4_EE7_M_rootEv, @function
_ZNSt8_Rb_treeISsSt4pairIKSsP5ValueESt10_Select1stIS4_ESt4lessISsESaIS4_EE7_M_rootEv:
.LFB2092:
	pushq	%rbp
.LCFI202:
	movq	%rsp, %rbp
.LCFI203:
	movq	%rdi, -8(%rbp)
	movq	-8(%rbp), %rax
	addq	$16, %rax
	leave
	ret
.LFE2092:
	.size	_ZNSt8_Rb_treeISsSt4pairIKSsP5ValueESt10_Select1stIS4_ESt4lessISsESaIS4_EE7_M_rootEv, .-_ZNSt8_Rb_treeISsSt4pairIKSsP5ValueESt10_Select1stIS4_ESt4lessISsESaIS4_EE7_M_rootEv
	.section	.gnu.linkonce.t._ZNSt8_Rb_treeISsSt4pairIKSsP5ValueESt10_Select1stIS4_ESt4lessISsESaIS4_EE12_M_rightmostEv,"ax",@progbits
	.align 2
	.weak	_ZNSt8_Rb_treeISsSt4pairIKSsP5ValueESt10_Select1stIS4_ESt4lessISsESaIS4_EE12_M_rightmostEv
	.type	_ZNSt8_Rb_treeISsSt4pairIKSsP5ValueESt10_Select1stIS4_ESt4lessISsESaIS4_EE12_M_rightmostEv, @function
_ZNSt8_Rb_treeISsSt4pairIKSsP5ValueESt10_Select1stIS4_ESt4lessISsESaIS4_EE12_M_rightmostEv:
.LFB2093:
	pushq	%rbp
.LCFI204:
	movq	%rsp, %rbp
.LCFI205:
	movq	%rdi, -8(%rbp)
	movq	-8(%rbp), %rax
	addq	$32, %rax
	leave
	ret
.LFE2093:
	.size	_ZNSt8_Rb_treeISsSt4pairIKSsP5ValueESt10_Select1stIS4_ESt4lessISsESaIS4_EE12_M_rightmostEv, .-_ZNSt8_Rb_treeISsSt4pairIKSsP5ValueESt10_Select1stIS4_ESt4lessISsESaIS4_EE12_M_rightmostEv
	.section	.gnu.linkonce.t._ZNSt8_Rb_treeISsSt4pairIKSsP5ValueESt10_Select1stIS4_ESt4lessISsESaIS4_EE11lower_boundERS1_,"ax",@progbits
	.align 2
	.weak	_ZNSt8_Rb_treeISsSt4pairIKSsP5ValueESt10_Select1stIS4_ESt4lessISsESaIS4_EE11lower_boundERS1_
	.type	_ZNSt8_Rb_treeISsSt4pairIKSsP5ValueESt10_Select1stIS4_ESt4lessISsESaIS4_EE11lower_boundERS1_, @function
_ZNSt8_Rb_treeISsSt4pairIKSsP5ValueESt10_Select1stIS4_ESt4lessISsESaIS4_EE11lower_boundERS1_:
.LFB2094:
	pushq	%rbp
.LCFI206:
	movq	%rsp, %rbp
.LCFI207:
	subq	$48, %rsp
.LCFI208:
	movq	%rdi, -8(%rbp)
	movq	%rsi, -16(%rbp)
	movq	-8(%rbp), %rdi
	call	_ZNSt8_Rb_treeISsSt4pairIKSsP5ValueESt10_Select1stIS4_ESt4lessISsESaIS4_EE8_M_beginEv
	movq	%rax, -24(%rbp)
	movq	-8(%rbp), %rdi
	call	_ZNSt8_Rb_treeISsSt4pairIKSsP5ValueESt10_Select1stIS4_ESt4lessISsESaIS4_EE6_M_endEv
	movq	%rax, -32(%rbp)
.L353:
	cmpq	$0, -24(%rbp)
	je	.L354
	movq	-24(%rbp), %rdi
	call	_ZNSt8_Rb_treeISsSt4pairIKSsP5ValueESt10_Select1stIS4_ESt4lessISsESaIS4_EE6_S_keyEPKSt13_Rb_tree_nodeIS4_E
	movq	%rax, %rsi
	movq	-16(%rbp), %rdx
	movq	-8(%rbp), %rdi
	call	_ZNKSt4lessISsEclERKSsS2_
	testb	%al, %al
	jne	.L355
	movq	-24(%rbp), %rax
	movq	%rax, -32(%rbp)
	movq	-24(%rbp), %rdi
	call	_ZNSt8_Rb_treeISsSt4pairIKSsP5ValueESt10_Select1stIS4_ESt4lessISsESaIS4_EE7_S_leftEPSt18_Rb_tree_node_base
	movq	%rax, -24(%rbp)
	jmp	.L353
.L355:
	movq	-24(%rbp), %rdi
	call	_ZNSt8_Rb_treeISsSt4pairIKSsP5ValueESt10_Select1stIS4_ESt4lessISsESaIS4_EE8_S_rightEPSt18_Rb_tree_node_base
	movq	%rax, -24(%rbp)
	jmp	.L353
.L354:
	movq	-32(%rbp), %rsi
	leaq	-40(%rbp), %rdi
	call	_ZNSt17_Rb_tree_iteratorISt4pairIKSsP5ValueEEC1EPSt13_Rb_tree_nodeIS4_E
	movq	-40(%rbp), %rax
	leave
	ret
.LFE2094:
	.size	_ZNSt8_Rb_treeISsSt4pairIKSsP5ValueESt10_Select1stIS4_ESt4lessISsESaIS4_EE11lower_boundERS1_, .-_ZNSt8_Rb_treeISsSt4pairIKSsP5ValueESt10_Select1stIS4_ESt4lessISsESaIS4_EE11lower_boundERS1_
	.section	.gnu.linkonce.t._ZNKSt8_Rb_treeISsSt4pairIKSsP5ValueESt10_Select1stIS4_ESt4lessISsESaIS4_EE8key_compEv,"ax",@progbits
	.align 2
	.weak	_ZNKSt8_Rb_treeISsSt4pairIKSsP5ValueESt10_Select1stIS4_ESt4lessISsESaIS4_EE8key_compEv
	.type	_ZNKSt8_Rb_treeISsSt4pairIKSsP5ValueESt10_Select1stIS4_ESt4lessISsESaIS4_EE8key_compEv, @function
_ZNKSt8_Rb_treeISsSt4pairIKSsP5ValueESt10_Select1stIS4_ESt4lessISsESaIS4_EE8key_compEv:
.LFB2095:
	pushq	%rbp
.LCFI209:
	movq	%rsp, %rbp
.LCFI210:
	movq	%rdi, -8(%rbp)
	movzbl	-9(%rbp), %eax
	leave
	ret
.LFE2095:
	.size	_ZNKSt8_Rb_treeISsSt4pairIKSsP5ValueESt10_Select1stIS4_ESt4lessISsESaIS4_EE8key_compEv, .-_ZNKSt8_Rb_treeISsSt4pairIKSsP5ValueESt10_Select1stIS4_ESt4lessISsESaIS4_EE8key_compEv
	.section	.gnu.linkonce.t._ZStltIcSt11char_traitsIcESaIcEEbRKSbIT_T0_T1_ES8_,"ax",@progbits
	.align 2
	.weak	_ZStltIcSt11char_traitsIcESaIcEEbRKSbIT_T0_T1_ES8_
	.type	_ZStltIcSt11char_traitsIcESaIcEEbRKSbIT_T0_T1_ES8_, @function
_ZStltIcSt11char_traitsIcESaIcEEbRKSbIT_T0_T1_ES8_:
.LFB2096:
	pushq	%rbp
.LCFI211:
	movq	%rsp, %rbp
.LCFI212:
	subq	$16, %rsp
.LCFI213:
	movq	%rdi, -8(%rbp)
	movq	%rsi, -16(%rbp)
	movq	-16(%rbp), %rsi
	movq	-8(%rbp), %rdi
	call	_ZNKSs7compareERKSs
	shrl	$31, %eax
	leave
	ret
.LFE2096:
	.size	_ZStltIcSt11char_traitsIcESaIcEEbRKSbIT_T0_T1_ES8_, .-_ZStltIcSt11char_traitsIcESaIcEEbRKSbIT_T0_T1_ES8_
	.section	.gnu.linkonce.t._ZNSt8_Rb_treeISsSt4pairIKSsP5ValueESt10_Select1stIS4_ESt4lessISsESaIS4_EE13insert_uniqueESt17_Rb_tree_iteratorIS4_ERKS4_,"ax",@progbits
	.align 2
	.weak	_ZNSt8_Rb_treeISsSt4pairIKSsP5ValueESt10_Select1stIS4_ESt4lessISsESaIS4_EE13insert_uniqueESt17_Rb_tree_iteratorIS4_ERKS4_
	.type	_ZNSt8_Rb_treeISsSt4pairIKSsP5ValueESt10_Select1stIS4_ESt4lessISsESaIS4_EE13insert_uniqueESt17_Rb_tree_iteratorIS4_ERKS4_, @function
_ZNSt8_Rb_treeISsSt4pairIKSsP5ValueESt10_Select1stIS4_ESt4lessISsESaIS4_EE13insert_uniqueESt17_Rb_tree_iteratorIS4_ERKS4_:
.LFB2097:
	pushq	%rbp
.LCFI214:
	movq	%rsp, %rbp
.LCFI215:
	pushq	%rbx
.LCFI216:
	subq	$152, %rsp
.LCFI217:
	movq	%rdi, -24(%rbp)
	movq	%rsi, -32(%rbp)
	movq	%rdx, -40(%rbp)
	movq	-24(%rbp), %rdi
	call	_ZNSt8_Rb_treeISsSt4pairIKSsP5ValueESt10_Select1stIS4_ESt4lessISsESaIS4_EE11_M_leftmostEv
	movq	%rax, %rdx
	movq	-32(%rbp), %rax
	cmpq	(%rdx), %rax
	jne	.L360
	movq	-24(%rbp), %rdi
	call	_ZNKSt8_Rb_treeISsSt4pairIKSsP5ValueESt10_Select1stIS4_ESt4lessISsESaIS4_EE4sizeEv
	testq	%rax, %rax
	je	.L361
	movq	-32(%rbp), %rdi
	call	_ZNSt8_Rb_treeISsSt4pairIKSsP5ValueESt10_Select1stIS4_ESt4lessISsESaIS4_EE6_S_keyEPKSt18_Rb_tree_node_base
	movq	%rax, %rbx
	movq	-40(%rbp), %rsi
	leaq	-41(%rbp), %rdi
	call	_ZNKSt10_Select1stISt4pairIKSsP5ValueEEclERKS4_
	movq	%rax, %rsi
	movq	-24(%rbp), %rdi
	movq	%rbx, %rdx
	call	_ZNKSt4lessISsEclERKSsS2_
	testb	%al, %al
	je	.L361
	movq	-40(%rbp), %rcx
	movq	-32(%rbp), %rdx
	movq	-32(%rbp), %rsi
	movq	-24(%rbp), %rdi
	call	_ZNSt8_Rb_treeISsSt4pairIKSsP5ValueESt10_Select1stIS4_ESt4lessISsESaIS4_EE9_M_insertEPSt18_Rb_tree_node_baseSC_RKS4_
	movq	%rax, -56(%rbp)
	movq	-56(%rbp), %rax
	movq	%rax, -144(%rbp)
	jmp	.L359
.L361:
	movq	-40(%rbp), %rsi
	movq	-24(%rbp), %rdi
	call	_ZNSt8_Rb_treeISsSt4pairIKSsP5ValueESt10_Select1stIS4_ESt4lessISsESaIS4_EE13insert_uniqueERKS4_
	movq	%rax, -80(%rbp)
	movq	%rdx, -72(%rbp)
	movq	-80(%rbp), %rax
	movq	%rax, -144(%rbp)
	jmp	.L359
.L360:
	movq	-24(%rbp), %rdi
	call	_ZNSt8_Rb_treeISsSt4pairIKSsP5ValueESt10_Select1stIS4_ESt4lessISsESaIS4_EE6_M_endEv
	cmpq	%rax, -32(%rbp)
	jne	.L364
	movq	-40(%rbp), %rsi
	leaq	-81(%rbp), %rdi
	call	_ZNKSt10_Select1stISt4pairIKSsP5ValueEEclERKS4_
	movq	%rax, %rbx
	movq	-24(%rbp), %rdi
	call	_ZNSt8_Rb_treeISsSt4pairIKSsP5ValueESt10_Select1stIS4_ESt4lessISsESaIS4_EE12_M_rightmostEv
	movq	(%rax), %rdi
	call	_ZNSt8_Rb_treeISsSt4pairIKSsP5ValueESt10_Select1stIS4_ESt4lessISsESaIS4_EE6_S_keyEPKSt18_Rb_tree_node_base
	movq	%rax, %rsi
	movq	-24(%rbp), %rdi
	movq	%rbx, %rdx
	call	_ZNKSt4lessISsEclERKSsS2_
	testb	%al, %al
	je	.L365
	movq	-24(%rbp), %rdi
	call	_ZNSt8_Rb_treeISsSt4pairIKSsP5ValueESt10_Select1stIS4_ESt4lessISsESaIS4_EE12_M_rightmostEv
	movq	-40(%rbp), %rcx
	movq	-24(%rbp), %rdi
	movq	(%rax), %rdx
	movl	$0, %esi
	call	_ZNSt8_Rb_treeISsSt4pairIKSsP5ValueESt10_Select1stIS4_ESt4lessISsESaIS4_EE9_M_insertEPSt18_Rb_tree_node_baseSC_RKS4_
	movq	%rax, -96(%rbp)
	movq	-96(%rbp), %rax
	movq	%rax, -144(%rbp)
	jmp	.L359
.L365:
	movq	-40(%rbp), %rsi
	movq	-24(%rbp), %rdi
	call	_ZNSt8_Rb_treeISsSt4pairIKSsP5ValueESt10_Select1stIS4_ESt4lessISsESaIS4_EE13insert_uniqueERKS4_
	movq	%rax, -80(%rbp)
	movq	%rdx, -72(%rbp)
	movq	-80(%rbp), %rax
	movq	%rax, -144(%rbp)
	jmp	.L359
.L364:
	movq	-32(%rbp), %rax
	movq	%rax, -112(%rbp)
	leaq	-112(%rbp), %rdi
	call	_ZNSt17_Rb_tree_iteratorISt4pairIKSsP5ValueEEmmEv
	movb	$0, -145(%rbp)
	movq	-40(%rbp), %rsi
	leaq	-113(%rbp), %rdi
	call	_ZNKSt10_Select1stISt4pairIKSsP5ValueEEclERKS4_
	movq	%rax, %rbx
	movq	-112(%rbp), %rdi
	call	_ZNSt8_Rb_treeISsSt4pairIKSsP5ValueESt10_Select1stIS4_ESt4lessISsESaIS4_EE6_S_keyEPKSt18_Rb_tree_node_base
	movq	%rax, %rsi
	movq	-24(%rbp), %rdi
	movq	%rbx, %rdx
	call	_ZNKSt4lessISsEclERKSsS2_
	testb	%al, %al
	je	.L369
	movq	-32(%rbp), %rdi
	call	_ZNSt8_Rb_treeISsSt4pairIKSsP5ValueESt10_Select1stIS4_ESt4lessISsESaIS4_EE6_S_keyEPKSt18_Rb_tree_node_base
	movq	%rax, %rbx
	movq	-40(%rbp), %rsi
	leaq	-114(%rbp), %rdi
	call	_ZNKSt10_Select1stISt4pairIKSsP5ValueEEclERKS4_
	movq	%rax, %rsi
	movq	-24(%rbp), %rdi
	movq	%rbx, %rdx
	call	_ZNKSt4lessISsEclERKSsS2_
	testb	%al, %al
	je	.L369
	movb	$1, -145(%rbp)
.L369:
	cmpb	$0, -145(%rbp)
	je	.L368
	movq	-112(%rbp), %rdi
	call	_ZNSt8_Rb_treeISsSt4pairIKSsP5ValueESt10_Select1stIS4_ESt4lessISsESaIS4_EE8_S_rightEPSt18_Rb_tree_node_base
	testq	%rax, %rax
	jne	.L370
	movq	-40(%rbp), %rcx
	movq	-112(%rbp), %rdx
	movq	-24(%rbp), %rdi
	movl	$0, %esi
	call	_ZNSt8_Rb_treeISsSt4pairIKSsP5ValueESt10_Select1stIS4_ESt4lessISsESaIS4_EE9_M_insertEPSt18_Rb_tree_node_baseSC_RKS4_
	movq	%rax, -128(%rbp)
	movq	-128(%rbp), %rax
	movq	%rax, -144(%rbp)
	jmp	.L359
.L370:
	movq	-40(%rbp), %rcx
	movq	-32(%rbp), %rdx
	movq	-32(%rbp), %rsi
	movq	-24(%rbp), %rdi
	call	_ZNSt8_Rb_treeISsSt4pairIKSsP5ValueESt10_Select1stIS4_ESt4lessISsESaIS4_EE9_M_insertEPSt18_Rb_tree_node_baseSC_RKS4_
	movq	%rax, -136(%rbp)
	movq	-136(%rbp), %rax
	movq	%rax, -144(%rbp)
	jmp	.L359
.L368:
	movq	-40(%rbp), %rsi
	movq	-24(%rbp), %rdi
	call	_ZNSt8_Rb_treeISsSt4pairIKSsP5ValueESt10_Select1stIS4_ESt4lessISsESaIS4_EE13insert_uniqueERKS4_
	movq	%rax, -80(%rbp)
	movq	%rdx, -72(%rbp)
	movq	-80(%rbp), %rax
	movq	%rax, -144(%rbp)
.L359:
	movq	-144(%rbp), %rax
	addq	$152, %rsp
	popq	%rbx
	leave
	ret
.LFE2097:
	.size	_ZNSt8_Rb_treeISsSt4pairIKSsP5ValueESt10_Select1stIS4_ESt4lessISsESaIS4_EE13insert_uniqueESt17_Rb_tree_iteratorIS4_ERKS4_, .-_ZNSt8_Rb_treeISsSt4pairIKSsP5ValueESt10_Select1stIS4_ESt4lessISsESaIS4_EE13insert_uniqueESt17_Rb_tree_iteratorIS4_ERKS4_
	.section	.gnu.linkonce.t._ZN9__gnu_cxx13new_allocatorISt13_Rb_tree_nodeISt4pairIKSsP5ValueEEEC2Ev,"ax",@progbits
	.align 2
	.weak	_ZN9__gnu_cxx13new_allocatorISt13_Rb_tree_nodeISt4pairIKSsP5ValueEEEC2Ev
	.type	_ZN9__gnu_cxx13new_allocatorISt13_Rb_tree_nodeISt4pairIKSsP5ValueEEEC2Ev, @function
_ZN9__gnu_cxx13new_allocatorISt13_Rb_tree_nodeISt4pairIKSsP5ValueEEEC2Ev:
.LFB2099:
	pushq	%rbp
.LCFI218:
	movq	%rsp, %rbp
.LCFI219:
	movq	%rdi, -8(%rbp)
	leave
	ret
.L374:
.LFE2099:
	.size	_ZN9__gnu_cxx13new_allocatorISt13_Rb_tree_nodeISt4pairIKSsP5ValueEEEC2Ev, .-_ZN9__gnu_cxx13new_allocatorISt13_Rb_tree_nodeISt4pairIKSsP5ValueEEEC2Ev
	.section	.gnu.linkonce.t._ZNSaISt13_Rb_tree_nodeISt4pairIKSsP5ValueEEEC2ERKS6_,"ax",@progbits
	.align 2
	.weak	_ZNSaISt13_Rb_tree_nodeISt4pairIKSsP5ValueEEEC2ERKS6_
	.type	_ZNSaISt13_Rb_tree_nodeISt4pairIKSsP5ValueEEEC2ERKS6_, @function
_ZNSaISt13_Rb_tree_nodeISt4pairIKSsP5ValueEEEC2ERKS6_:
.LFB2102:
	pushq	%rbp
.LCFI220:
	movq	%rsp, %rbp
.LCFI221:
	subq	$16, %rsp
.LCFI222:
	movq	%rdi, -8(%rbp)
	movq	%rsi, -16(%rbp)
	movq	-16(%rbp), %rsi
	movq	-8(%rbp), %rdi
	call	_ZN9__gnu_cxx13new_allocatorISt13_Rb_tree_nodeISt4pairIKSsP5ValueEEEC2ERKS8_
	leave
	ret
.L377:
.L379:
.LFE2102:
	.size	_ZNSaISt13_Rb_tree_nodeISt4pairIKSsP5ValueEEEC2ERKS6_, .-_ZNSaISt13_Rb_tree_nodeISt4pairIKSsP5ValueEEEC2ERKS6_
	.section	.gnu.linkonce.t._ZSt8_DestroyISt4pairIKSsP5ValueEEvPT_,"ax",@progbits
	.align 2
	.weak	_ZSt8_DestroyISt4pairIKSsP5ValueEEvPT_
	.type	_ZSt8_DestroyISt4pairIKSsP5ValueEEvPT_, @function
_ZSt8_DestroyISt4pairIKSsP5ValueEEvPT_:
.LFB2104:
	pushq	%rbp
.LCFI223:
	movq	%rsp, %rbp
.LCFI224:
	subq	$16, %rsp
.LCFI225:
	movq	%rdi, -8(%rbp)
	movq	-8(%rbp), %rdi
	call	_ZNSt4pairIKSsP5ValueED1Ev
	leave
	ret
.LFE2104:
	.size	_ZSt8_DestroyISt4pairIKSsP5ValueEEvPT_, .-_ZSt8_DestroyISt4pairIKSsP5ValueEEvPT_
	.section	.gnu.linkonce.t._ZNSt8_Rb_treeISsSt4pairIKSsP5ValueESt10_Select1stIS4_ESt4lessISsESaIS4_EE11_M_put_nodeEPSt13_Rb_tree_nodeIS4_E,"ax",@progbits
	.align 2
	.weak	_ZNSt8_Rb_treeISsSt4pairIKSsP5ValueESt10_Select1stIS4_ESt4lessISsESaIS4_EE11_M_put_nodeEPSt13_Rb_tree_nodeIS4_E
	.type	_ZNSt8_Rb_treeISsSt4pairIKSsP5ValueESt10_Select1stIS4_ESt4lessISsESaIS4_EE11_M_put_nodeEPSt13_Rb_tree_nodeIS4_E, @function
_ZNSt8_Rb_treeISsSt4pairIKSsP5ValueESt10_Select1stIS4_ESt4lessISsESaIS4_EE11_M_put_nodeEPSt13_Rb_tree_nodeIS4_E:
.LFB2105:
	pushq	%rbp
.LCFI226:
	movq	%rsp, %rbp
.LCFI227:
	subq	$16, %rsp
.LCFI228:
	movq	%rdi, -8(%rbp)
	movq	%rsi, -16(%rbp)
	movq	-16(%rbp), %rsi
	movq	-8(%rbp), %rdi
	movl	$1, %edx
	call	_ZN9__gnu_cxx13new_allocatorISt13_Rb_tree_nodeISt4pairIKSsP5ValueEEE10deallocateEPS7_m
	leave
	ret
.LFE2105:
	.size	_ZNSt8_Rb_treeISsSt4pairIKSsP5ValueESt10_Select1stIS4_ESt4lessISsESaIS4_EE11_M_put_nodeEPSt13_Rb_tree_nodeIS4_E, .-_ZNSt8_Rb_treeISsSt4pairIKSsP5ValueESt10_Select1stIS4_ESt4lessISsESaIS4_EE11_M_put_nodeEPSt13_Rb_tree_nodeIS4_E
	.section	.gnu.linkonce.t._ZNSt8_Rb_treeISsSt4pairIKSsP5ValueESt10_Select1stIS4_ESt4lessISsESaIS4_EE8_S_valueEPKSt13_Rb_tree_nodeIS4_E,"ax",@progbits
	.align 2
	.weak	_ZNSt8_Rb_treeISsSt4pairIKSsP5ValueESt10_Select1stIS4_ESt4lessISsESaIS4_EE8_S_valueEPKSt13_Rb_tree_nodeIS4_E
	.type	_ZNSt8_Rb_treeISsSt4pairIKSsP5ValueESt10_Select1stIS4_ESt4lessISsESaIS4_EE8_S_valueEPKSt13_Rb_tree_nodeIS4_E, @function
_ZNSt8_Rb_treeISsSt4pairIKSsP5ValueESt10_Select1stIS4_ESt4lessISsESaIS4_EE8_S_valueEPKSt13_Rb_tree_nodeIS4_E:
.LFB2115:
	pushq	%rbp
.LCFI229:
	movq	%rsp, %rbp
.LCFI230:
	movq	%rdi, -8(%rbp)
	movq	-8(%rbp), %rax
	addq	$32, %rax
	leave
	ret
.LFE2115:
	.size	_ZNSt8_Rb_treeISsSt4pairIKSsP5ValueESt10_Select1stIS4_ESt4lessISsESaIS4_EE8_S_valueEPKSt13_Rb_tree_nodeIS4_E, .-_ZNSt8_Rb_treeISsSt4pairIKSsP5ValueESt10_Select1stIS4_ESt4lessISsESaIS4_EE8_S_valueEPKSt13_Rb_tree_nodeIS4_E
	.section	.gnu.linkonce.t._ZNKSt10_Select1stISt4pairIKSsP5ValueEEclERKS4_,"ax",@progbits
	.align 2
	.weak	_ZNKSt10_Select1stISt4pairIKSsP5ValueEEclERKS4_
	.type	_ZNKSt10_Select1stISt4pairIKSsP5ValueEEclERKS4_, @function
_ZNKSt10_Select1stISt4pairIKSsP5ValueEEclERKS4_:
.LFB2116:
	pushq	%rbp
.LCFI231:
	movq	%rsp, %rbp
.LCFI232:
	movq	%rdi, -8(%rbp)
	movq	%rsi, -16(%rbp)
	movq	-16(%rbp), %rax
	leave
	ret
.LFE2116:
	.size	_ZNKSt10_Select1stISt4pairIKSsP5ValueEEclERKS4_, .-_ZNKSt10_Select1stISt4pairIKSsP5ValueEEclERKS4_
	.section	.gnu.linkonce.t._ZNSt8_Rb_treeISsSt4pairIKSsP5ValueESt10_Select1stIS4_ESt4lessISsESaIS4_EE8_S_valueEPKSt18_Rb_tree_node_base,"ax",@progbits
	.align 2
	.weak	_ZNSt8_Rb_treeISsSt4pairIKSsP5ValueESt10_Select1stIS4_ESt4lessISsESaIS4_EE8_S_valueEPKSt18_Rb_tree_node_base
	.type	_ZNSt8_Rb_treeISsSt4pairIKSsP5ValueESt10_Select1stIS4_ESt4lessISsESaIS4_EE8_S_valueEPKSt18_Rb_tree_node_base, @function
_ZNSt8_Rb_treeISsSt4pairIKSsP5ValueESt10_Select1stIS4_ESt4lessISsESaIS4_EE8_S_valueEPKSt18_Rb_tree_node_base:
.LFB2117:
	pushq	%rbp
.LCFI233:
	movq	%rsp, %rbp
.LCFI234:
	movq	%rdi, -8(%rbp)
	movq	-8(%rbp), %rax
	addq	$32, %rax
	leave
	ret
.LFE2117:
	.size	_ZNSt8_Rb_treeISsSt4pairIKSsP5ValueESt10_Select1stIS4_ESt4lessISsESaIS4_EE8_S_valueEPKSt18_Rb_tree_node_base, .-_ZNSt8_Rb_treeISsSt4pairIKSsP5ValueESt10_Select1stIS4_ESt4lessISsESaIS4_EE8_S_valueEPKSt18_Rb_tree_node_base
	.section	.gnu.linkonce.t._ZNSt8_Rb_treeISsSt4pairIKSsP5ValueESt10_Select1stIS4_ESt4lessISsESaIS4_EE9_M_insertEPSt18_Rb_tree_node_baseSC_RKS4_,"ax",@progbits
	.align 2
	.weak	_ZNSt8_Rb_treeISsSt4pairIKSsP5ValueESt10_Select1stIS4_ESt4lessISsESaIS4_EE9_M_insertEPSt18_Rb_tree_node_baseSC_RKS4_
	.type	_ZNSt8_Rb_treeISsSt4pairIKSsP5ValueESt10_Select1stIS4_ESt4lessISsESaIS4_EE9_M_insertEPSt18_Rb_tree_node_baseSC_RKS4_, @function
_ZNSt8_Rb_treeISsSt4pairIKSsP5ValueESt10_Select1stIS4_ESt4lessISsESaIS4_EE9_M_insertEPSt18_Rb_tree_node_baseSC_RKS4_:
.LFB2119:
	pushq	%rbp
.LCFI235:
	movq	%rsp, %rbp
.LCFI236:
	pushq	%rbx
.LCFI237:
	subq	$72, %rsp
.LCFI238:
	movq	%rdi, -16(%rbp)
	movq	%rsi, -24(%rbp)
	movq	%rdx, -32(%rbp)
	movq	%rcx, -40(%rbp)
	movq	-40(%rbp), %rsi
	movq	-16(%rbp), %rdi
	call	_ZNSt8_Rb_treeISsSt4pairIKSsP5ValueESt10_Select1stIS4_ESt4lessISsESaIS4_EE14_M_create_nodeERKS4_
	movq	%rax, -48(%rbp)
	movb	$0, -65(%rbp)
	cmpq	$0, -24(%rbp)
	jne	.L388
	movq	-16(%rbp), %rdi
	call	_ZNSt8_Rb_treeISsSt4pairIKSsP5ValueESt10_Select1stIS4_ESt4lessISsESaIS4_EE6_M_endEv
	cmpq	-32(%rbp), %rax
	je	.L388
	movq	-32(%rbp), %rdi
	call	_ZNSt8_Rb_treeISsSt4pairIKSsP5ValueESt10_Select1stIS4_ESt4lessISsESaIS4_EE6_S_keyEPKSt18_Rb_tree_node_base
	movq	%rax, %rbx
	movq	-40(%rbp), %rsi
	leaq	-50(%rbp), %rdi
	call	_ZNKSt10_Select1stISt4pairIKSsP5ValueEEclERKS4_
	movq	%rax, %rsi
	movq	-16(%rbp), %rdi
	movq	%rbx, %rdx
	call	_ZNKSt4lessISsEclERKSsS2_
	testb	%al, %al
	jne	.L388
	jmp	.L387
.L388:
	movb	$1, -65(%rbp)
.L387:
	movzbl	-65(%rbp), %eax
	movb	%al, -49(%rbp)
	movq	-16(%rbp), %rcx
	addq	$8, %rcx
	movq	-32(%rbp), %rdx
	movq	-48(%rbp), %rsi
	movzbl	-49(%rbp), %edi
	call	_ZSt29_Rb_tree_insert_and_rebalancebPSt18_Rb_tree_node_baseS0_RS_
	movq	-16(%rbp), %rax
	incq	40(%rax)
	movq	-48(%rbp), %rsi
	leaq	-64(%rbp), %rdi
	call	_ZNSt17_Rb_tree_iteratorISt4pairIKSsP5ValueEEC1EPSt13_Rb_tree_nodeIS4_E
	movq	-64(%rbp), %rax
	addq	$72, %rsp
	popq	%rbx
	leave
	ret
.LFE2119:
	.size	_ZNSt8_Rb_treeISsSt4pairIKSsP5ValueESt10_Select1stIS4_ESt4lessISsESaIS4_EE9_M_insertEPSt18_Rb_tree_node_baseSC_RKS4_, .-_ZNSt8_Rb_treeISsSt4pairIKSsP5ValueESt10_Select1stIS4_ESt4lessISsESaIS4_EE9_M_insertEPSt18_Rb_tree_node_baseSC_RKS4_
	.section	.gnu.linkonce.t._ZNSt8_Rb_treeISsSt4pairIKSsP5ValueESt10_Select1stIS4_ESt4lessISsESaIS4_EE13insert_uniqueERKS4_,"ax",@progbits
	.align 2
	.weak	_ZNSt8_Rb_treeISsSt4pairIKSsP5ValueESt10_Select1stIS4_ESt4lessISsESaIS4_EE13insert_uniqueERKS4_
	.type	_ZNSt8_Rb_treeISsSt4pairIKSsP5ValueESt10_Select1stIS4_ESt4lessISsESaIS4_EE13insert_uniqueERKS4_, @function
_ZNSt8_Rb_treeISsSt4pairIKSsP5ValueESt10_Select1stIS4_ESt4lessISsESaIS4_EE13insert_uniqueERKS4_:
.LFB2120:
	pushq	%rbp
.LCFI239:
	movq	%rsp, %rbp
.LCFI240:
	pushq	%rbx
.LCFI241:
	subq	$168, %rsp
.LCFI242:
	movq	%rdi, -24(%rbp)
	movq	%rsi, -32(%rbp)
	movq	-24(%rbp), %rdi
	call	_ZNSt8_Rb_treeISsSt4pairIKSsP5ValueESt10_Select1stIS4_ESt4lessISsESaIS4_EE8_M_beginEv
	movq	%rax, -40(%rbp)
	movq	-24(%rbp), %rdi
	call	_ZNSt8_Rb_treeISsSt4pairIKSsP5ValueESt10_Select1stIS4_ESt4lessISsESaIS4_EE6_M_endEv
	movq	%rax, -48(%rbp)
	movb	$1, -49(%rbp)
.L390:
	cmpq	$0, -40(%rbp)
	je	.L391
	movq	-40(%rbp), %rax
	movq	%rax, -48(%rbp)
	movq	-40(%rbp), %rdi
	call	_ZNSt8_Rb_treeISsSt4pairIKSsP5ValueESt10_Select1stIS4_ESt4lessISsESaIS4_EE6_S_keyEPKSt13_Rb_tree_nodeIS4_E
	movq	%rax, %rbx
	movq	-32(%rbp), %rsi
	leaq	-50(%rbp), %rdi
	call	_ZNKSt10_Select1stISt4pairIKSsP5ValueEEclERKS4_
	movq	%rax, %rsi
	movq	-24(%rbp), %rdi
	movq	%rbx, %rdx
	call	_ZNKSt4lessISsEclERKSsS2_
	movb	%al, -49(%rbp)
	cmpb	$0, -49(%rbp)
	je	.L392
	movq	-40(%rbp), %rdi
	call	_ZNSt8_Rb_treeISsSt4pairIKSsP5ValueESt10_Select1stIS4_ESt4lessISsESaIS4_EE7_S_leftEPSt18_Rb_tree_node_base
	movq	%rax, -168(%rbp)
	jmp	.L393
.L392:
	movq	-40(%rbp), %rdi
	call	_ZNSt8_Rb_treeISsSt4pairIKSsP5ValueESt10_Select1stIS4_ESt4lessISsESaIS4_EE8_S_rightEPSt18_Rb_tree_node_base
	movq	%rax, -168(%rbp)
.L393:
	movq	-168(%rbp), %rax
	movq	%rax, -40(%rbp)
	jmp	.L390
.L391:
	movq	-48(%rbp), %rsi
	leaq	-64(%rbp), %rdi
	call	_ZNSt17_Rb_tree_iteratorISt4pairIKSsP5ValueEEC1EPSt13_Rb_tree_nodeIS4_E
	cmpb	$0, -49(%rbp)
	je	.L394
	movq	-24(%rbp), %rdi
	call	_ZNSt8_Rb_treeISsSt4pairIKSsP5ValueESt10_Select1stIS4_ESt4lessISsESaIS4_EE5beginEv
	movq	%rax, -72(%rbp)
	leaq	-72(%rbp), %rsi
	leaq	-64(%rbp), %rdi
	call	_ZNKSt17_Rb_tree_iteratorISt4pairIKSsP5ValueEEeqERKS5_
	testb	%al, %al
	je	.L395
	movq	-32(%rbp), %rcx
	movq	-48(%rbp), %rdx
	movq	-40(%rbp), %rsi
	movq	-24(%rbp), %rdi
	call	_ZNSt8_Rb_treeISsSt4pairIKSsP5ValueESt10_Select1stIS4_ESt4lessISsESaIS4_EE9_M_insertEPSt18_Rb_tree_node_baseSC_RKS4_
	movq	%rax, -120(%rbp)
	leaq	-120(%rbp), %rsi
	movb	$1, -121(%rbp)
	leaq	-121(%rbp), %rdx
	leaq	-112(%rbp), %rdi
	call	_ZNSt4pairISt17_Rb_tree_iteratorIS_IKSsP5ValueEEbEC1ERKS5_RKb
	movq	-112(%rbp), %rax
	movq	-104(%rbp), %rdx
	movq	%rax, -152(%rbp)
	movq	%rdx, -160(%rbp)
	jmp	.L389
.L395:
	leaq	-64(%rbp), %rdi
	call	_ZNSt17_Rb_tree_iteratorISt4pairIKSsP5ValueEEmmEv
.L394:
	movq	-32(%rbp), %rsi
	leaq	-122(%rbp), %rdi
	call	_ZNKSt10_Select1stISt4pairIKSsP5ValueEEclERKS4_
	movq	%rax, %rbx
	movq	-64(%rbp), %rdi
	call	_ZNSt8_Rb_treeISsSt4pairIKSsP5ValueESt10_Select1stIS4_ESt4lessISsESaIS4_EE6_S_keyEPKSt18_Rb_tree_node_base
	movq	%rax, %rsi
	movq	-24(%rbp), %rdi
	movq	%rbx, %rdx
	call	_ZNKSt4lessISsEclERKSsS2_
	testb	%al, %al
	je	.L397
	movq	-32(%rbp), %rcx
	movq	-48(%rbp), %rdx
	movq	-40(%rbp), %rsi
	movq	-24(%rbp), %rdi
	call	_ZNSt8_Rb_treeISsSt4pairIKSsP5ValueESt10_Select1stIS4_ESt4lessISsESaIS4_EE9_M_insertEPSt18_Rb_tree_node_baseSC_RKS4_
	movq	%rax, -136(%rbp)
	leaq	-136(%rbp), %rsi
	movb	$1, -137(%rbp)
	leaq	-137(%rbp), %rdx
	leaq	-96(%rbp), %rdi
	call	_ZNSt4pairISt17_Rb_tree_iteratorIS_IKSsP5ValueEEbEC1ERKS5_RKb
	movq	-96(%rbp), %rax
	movq	-88(%rbp), %rdx
	movq	%rax, -152(%rbp)
	movq	%rdx, -160(%rbp)
	jmp	.L389
.L397:
	movb	$0, -138(%rbp)
	leaq	-138(%rbp), %rdx
	leaq	-64(%rbp), %rsi
	leaq	-96(%rbp), %rdi
	call	_ZNSt4pairISt17_Rb_tree_iteratorIS_IKSsP5ValueEEbEC1ERKS5_RKb
	movq	-96(%rbp), %rax
	movq	-88(%rbp), %rdx
	movq	%rax, -152(%rbp)
	movq	%rdx, -160(%rbp)
.L389:
	movq	-152(%rbp), %rax
	movq	-160(%rbp), %rdx
	addq	$168, %rsp
	popq	%rbx
	leave
	ret
.LFE2120:
	.size	_ZNSt8_Rb_treeISsSt4pairIKSsP5ValueESt10_Select1stIS4_ESt4lessISsESaIS4_EE13insert_uniqueERKS4_, .-_ZNSt8_Rb_treeISsSt4pairIKSsP5ValueESt10_Select1stIS4_ESt4lessISsESaIS4_EE13insert_uniqueERKS4_
	.section	.gnu.linkonce.t._ZNSt8_Rb_treeISsSt4pairIKSsP5ValueESt10_Select1stIS4_ESt4lessISsESaIS4_EE5beginEv,"ax",@progbits
	.align 2
	.weak	_ZNSt8_Rb_treeISsSt4pairIKSsP5ValueESt10_Select1stIS4_ESt4lessISsESaIS4_EE5beginEv
	.type	_ZNSt8_Rb_treeISsSt4pairIKSsP5ValueESt10_Select1stIS4_ESt4lessISsESaIS4_EE5beginEv, @function
_ZNSt8_Rb_treeISsSt4pairIKSsP5ValueESt10_Select1stIS4_ESt4lessISsESaIS4_EE5beginEv:
.LFB2112:
	pushq	%rbp
.LCFI243:
	movq	%rsp, %rbp
.LCFI244:
	subq	$16, %rsp
.LCFI245:
	movq	%rdi, -8(%rbp)
	movq	-8(%rbp), %rax
	movq	24(%rax), %rsi
	leaq	-16(%rbp), %rdi
	call	_ZNSt17_Rb_tree_iteratorISt4pairIKSsP5ValueEEC1EPSt13_Rb_tree_nodeIS4_E
	movq	-16(%rbp), %rax
	leave
	ret
.LFE2112:
	.size	_ZNSt8_Rb_treeISsSt4pairIKSsP5ValueESt10_Select1stIS4_ESt4lessISsESaIS4_EE5beginEv, .-_ZNSt8_Rb_treeISsSt4pairIKSsP5ValueESt10_Select1stIS4_ESt4lessISsESaIS4_EE5beginEv
	.section	.gnu.linkonce.t._ZNSt17_Rb_tree_iteratorISt4pairIKSsP5ValueEEmmEv,"ax",@progbits
	.align 2
	.weak	_ZNSt17_Rb_tree_iteratorISt4pairIKSsP5ValueEEmmEv
	.type	_ZNSt17_Rb_tree_iteratorISt4pairIKSsP5ValueEEmmEv, @function
_ZNSt17_Rb_tree_iteratorISt4pairIKSsP5ValueEEmmEv:
.LFB2121:
	pushq	%rbp
.LCFI246:
	movq	%rsp, %rbp
.LCFI247:
	pushq	%rbx
.LCFI248:
	subq	$8, %rsp
.LCFI249:
	movq	%rdi, -16(%rbp)
	movq	-16(%rbp), %rbx
	movq	-16(%rbp), %rax
	movq	(%rax), %rdi
	call	_ZSt18_Rb_tree_decrementPSt18_Rb_tree_node_base
	movq	%rax, (%rbx)
	movq	-16(%rbp), %rax
	addq	$8, %rsp
	popq	%rbx
	leave
	ret
.LFE2121:
	.size	_ZNSt17_Rb_tree_iteratorISt4pairIKSsP5ValueEEmmEv, .-_ZNSt17_Rb_tree_iteratorISt4pairIKSsP5ValueEEmmEv
	.section	.gnu.linkonce.t._ZN9__gnu_cxx13new_allocatorISt13_Rb_tree_nodeISt4pairIKSsP5ValueEEEC2ERKS8_,"ax",@progbits
	.align 2
	.weak	_ZN9__gnu_cxx13new_allocatorISt13_Rb_tree_nodeISt4pairIKSsP5ValueEEEC2ERKS8_
	.type	_ZN9__gnu_cxx13new_allocatorISt13_Rb_tree_nodeISt4pairIKSsP5ValueEEEC2ERKS8_, @function
_ZN9__gnu_cxx13new_allocatorISt13_Rb_tree_nodeISt4pairIKSsP5ValueEEEC2ERKS8_:
.LFB2123:
	pushq	%rbp
.LCFI250:
	movq	%rsp, %rbp
.LCFI251:
	movq	%rdi, -8(%rbp)
	movq	%rsi, -16(%rbp)
	leave
	ret
.L401:
.LFE2123:
	.size	_ZN9__gnu_cxx13new_allocatorISt13_Rb_tree_nodeISt4pairIKSsP5ValueEEEC2ERKS8_, .-_ZN9__gnu_cxx13new_allocatorISt13_Rb_tree_nodeISt4pairIKSsP5ValueEEEC2ERKS8_
	.section	.gnu.linkonce.t._ZN9__gnu_cxx13new_allocatorISt13_Rb_tree_nodeISt4pairIKSsP5ValueEEE10deallocateEPS7_m,"ax",@progbits
	.align 2
	.weak	_ZN9__gnu_cxx13new_allocatorISt13_Rb_tree_nodeISt4pairIKSsP5ValueEEE10deallocateEPS7_m
	.type	_ZN9__gnu_cxx13new_allocatorISt13_Rb_tree_nodeISt4pairIKSsP5ValueEEE10deallocateEPS7_m, @function
_ZN9__gnu_cxx13new_allocatorISt13_Rb_tree_nodeISt4pairIKSsP5ValueEEE10deallocateEPS7_m:
.LFB2125:
	pushq	%rbp
.LCFI252:
	movq	%rsp, %rbp
.LCFI253:
	subq	$32, %rsp
.LCFI254:
	movq	%rdi, -8(%rbp)
	movq	%rsi, -16(%rbp)
	movq	%rdx, -24(%rbp)
	movq	-16(%rbp), %rdi
	call	_ZdlPv
	leave
	ret
.LFE2125:
	.size	_ZN9__gnu_cxx13new_allocatorISt13_Rb_tree_nodeISt4pairIKSsP5ValueEEE10deallocateEPS7_m, .-_ZN9__gnu_cxx13new_allocatorISt13_Rb_tree_nodeISt4pairIKSsP5ValueEEE10deallocateEPS7_m
	.section	.gnu.linkonce.t._ZNSt8_Rb_treeISsSt4pairIKSsP5ValueESt10_Select1stIS4_ESt4lessISsESaIS4_EE14_M_create_nodeERKS4_,"ax",@progbits
	.align 2
	.weak	_ZNSt8_Rb_treeISsSt4pairIKSsP5ValueESt10_Select1stIS4_ESt4lessISsESaIS4_EE14_M_create_nodeERKS4_
	.type	_ZNSt8_Rb_treeISsSt4pairIKSsP5ValueESt10_Select1stIS4_ESt4lessISsESaIS4_EE14_M_create_nodeERKS4_, @function
_ZNSt8_Rb_treeISsSt4pairIKSsP5ValueESt10_Select1stIS4_ESt4lessISsESaIS4_EE14_M_create_nodeERKS4_:
.LFB2128:
	pushq	%rbp
.LCFI255:
	movq	%rsp, %rbp
.LCFI256:
	pushq	%rbx
.LCFI257:
	subq	$40, %rsp
.LCFI258:
	movq	%rdi, -16(%rbp)
	movq	%rsi, -24(%rbp)
	movq	-16(%rbp), %rdi
.LEHB75:
	call	_ZNSt8_Rb_treeISsSt4pairIKSsP5ValueESt10_Select1stIS4_ESt4lessISsESaIS4_EE11_M_get_nodeEv
.LEHE75:
	movq	%rax, -32(%rbp)
	movq	-24(%rbp), %rsi
	movq	-32(%rbp), %rdi
	addq	$32, %rdi
.LEHB76:
	call	_ZSt10_ConstructISt4pairIKSsP5ValueES4_EvPT_RKT0_
.LEHE76:
	jmp	.L405
.L413:
	movq	%rax, -40(%rbp)
.L406:
	movq	-40(%rbp), %rdi
	call	__cxa_begin_catch
	movq	-32(%rbp), %rsi
	movq	-16(%rbp), %rdi
.LEHB77:
	call	_ZNSt8_Rb_treeISsSt4pairIKSsP5ValueESt10_Select1stIS4_ESt4lessISsESaIS4_EE11_M_put_nodeEPSt13_Rb_tree_nodeIS4_E
	call	__cxa_rethrow
.LEHE77:
.L412:
	movq	%rax, -40(%rbp)
.L407:
	movq	-40(%rbp), %rbx
	call	__cxa_end_catch
	movq	%rbx, -40(%rbp)
.L409:
	movq	-40(%rbp), %rdi
.LEHB78:
	call	_Unwind_Resume
.LEHE78:
.L405:
	movq	-32(%rbp), %rax
	addq	$40, %rsp
	popq	%rbx
	leave
	ret
.LFE2128:
	.size	_ZNSt8_Rb_treeISsSt4pairIKSsP5ValueESt10_Select1stIS4_ESt4lessISsESaIS4_EE14_M_create_nodeERKS4_, .-_ZNSt8_Rb_treeISsSt4pairIKSsP5ValueESt10_Select1stIS4_ESt4lessISsESaIS4_EE14_M_create_nodeERKS4_
	.section	.gcc_except_table
	.align 8
.LLSDA2128:
	.byte	0xff
	.byte	0x0
	.uleb128 .LLSDATT2128-.LLSDATTD2128
.LLSDATTD2128:
	.byte	0x1
	.uleb128 .LLSDACSE2128-.LLSDACSB2128
.LLSDACSB2128:
	.uleb128 .LEHB75-.LFB2128
	.uleb128 .LEHE75-.LEHB75
	.uleb128 0x0
	.uleb128 0x0
	.uleb128 .LEHB76-.LFB2128
	.uleb128 .LEHE76-.LEHB76
	.uleb128 .L413-.LFB2128
	.uleb128 0x1
	.uleb128 .LEHB77-.LFB2128
	.uleb128 .LEHE77-.LEHB77
	.uleb128 .L412-.LFB2128
	.uleb128 0x0
	.uleb128 .LEHB78-.LFB2128
	.uleb128 .LEHE78-.LEHB78
	.uleb128 0x0
	.uleb128 0x0
.LLSDACSE2128:
	.byte	0x1
	.byte	0x0
	.align 8
	.quad	0
.LLSDATT2128:
	.section	.gnu.linkonce.t._ZNSt8_Rb_treeISsSt4pairIKSsP5ValueESt10_Select1stIS4_ESt4lessISsESaIS4_EE14_M_create_nodeERKS4_
	.section	.gnu.linkonce.t._ZNSt4pairISt17_Rb_tree_iteratorIS_IKSsP5ValueEEbEC1ERKS5_RKb,"ax",@progbits
	.align 2
	.weak	_ZNSt4pairISt17_Rb_tree_iteratorIS_IKSsP5ValueEEbEC1ERKS5_RKb
	.type	_ZNSt4pairISt17_Rb_tree_iteratorIS_IKSsP5ValueEEbEC1ERKS5_RKb, @function
_ZNSt4pairISt17_Rb_tree_iteratorIS_IKSsP5ValueEEbEC1ERKS5_RKb:
.LFB2131:
	pushq	%rbp
.LCFI259:
	movq	%rsp, %rbp
.LCFI260:
	movq	%rdi, -8(%rbp)
	movq	%rsi, -16(%rbp)
	movq	%rdx, -24(%rbp)
	movq	-8(%rbp), %rdx
	movq	-16(%rbp), %rax
	movq	(%rax), %rax
	movq	%rax, (%rdx)
	movq	-8(%rbp), %rdx
	movq	-24(%rbp), %rax
	movzbl	(%rax), %eax
	movb	%al, 8(%rdx)
	leave
	ret
.LFE2131:
	.size	_ZNSt4pairISt17_Rb_tree_iteratorIS_IKSsP5ValueEEbEC1ERKS5_RKb, .-_ZNSt4pairISt17_Rb_tree_iteratorIS_IKSsP5ValueEEbEC1ERKS5_RKb
	.section	.gnu.linkonce.t._ZNSt8_Rb_treeISsSt4pairIKSsP5ValueESt10_Select1stIS4_ESt4lessISsESaIS4_EE11_M_get_nodeEv,"ax",@progbits
	.align 2
	.weak	_ZNSt8_Rb_treeISsSt4pairIKSsP5ValueESt10_Select1stIS4_ESt4lessISsESaIS4_EE11_M_get_nodeEv
	.type	_ZNSt8_Rb_treeISsSt4pairIKSsP5ValueESt10_Select1stIS4_ESt4lessISsESaIS4_EE11_M_get_nodeEv, @function
_ZNSt8_Rb_treeISsSt4pairIKSsP5ValueESt10_Select1stIS4_ESt4lessISsESaIS4_EE11_M_get_nodeEv:
.LFB2132:
	pushq	%rbp
.LCFI261:
	movq	%rsp, %rbp
.LCFI262:
	subq	$16, %rsp
.LCFI263:
	movq	%rdi, -8(%rbp)
	movq	-8(%rbp), %rdi
	movl	$0, %edx
	movl	$1, %esi
	call	_ZN9__gnu_cxx13new_allocatorISt13_Rb_tree_nodeISt4pairIKSsP5ValueEEE8allocateEmPKv
	leave
	ret
.LFE2132:
	.size	_ZNSt8_Rb_treeISsSt4pairIKSsP5ValueESt10_Select1stIS4_ESt4lessISsESaIS4_EE11_M_get_nodeEv, .-_ZNSt8_Rb_treeISsSt4pairIKSsP5ValueESt10_Select1stIS4_ESt4lessISsESaIS4_EE11_M_get_nodeEv
	.section	.gnu.linkonce.t._ZSt10_ConstructISt4pairIKSsP5ValueES4_EvPT_RKT0_,"ax",@progbits
	.align 2
	.weak	_ZSt10_ConstructISt4pairIKSsP5ValueES4_EvPT_RKT0_
	.type	_ZSt10_ConstructISt4pairIKSsP5ValueES4_EvPT_RKT0_, @function
_ZSt10_ConstructISt4pairIKSsP5ValueES4_EvPT_RKT0_:
.LFB2133:
	pushq	%rbp
.LCFI264:
	movq	%rsp, %rbp
.LCFI265:
	pushq	%rbx
.LCFI266:
	subq	$40, %rsp
.LCFI267:
	movq	%rdi, -16(%rbp)
	movq	%rsi, -24(%rbp)
	movq	-16(%rbp), %rsi
	movl	$16, %edi
	call	_ZnwmPv
	movq	%rax, -32(%rbp)
	cmpq	$0, -32(%rbp)
	je	.L416
	movq	-24(%rbp), %rsi
	movq	-32(%rbp), %rdi
.LEHB79:
	call	_ZNSt4pairIKSsP5ValueEC1ERKS3_
.LEHE79:
	jmp	.L416
.L423:
	movq	%rax, -40(%rbp)
.L419:
	movq	-40(%rbp), %rbx
	movq	-16(%rbp), %rsi
	movq	-32(%rbp), %rdi
	call	_ZdlPvS_
	movq	%rbx, -40(%rbp)
.L421:
	movq	-40(%rbp), %rdi
.LEHB80:
	call	_Unwind_Resume
.LEHE80:
.L416:
	addq	$40, %rsp
	popq	%rbx
	leave
	ret
.LFE2133:
	.size	_ZSt10_ConstructISt4pairIKSsP5ValueES4_EvPT_RKT0_, .-_ZSt10_ConstructISt4pairIKSsP5ValueES4_EvPT_RKT0_
	.section	.gcc_except_table
.LLSDA2133:
	.byte	0xff
	.byte	0xff
	.byte	0x1
	.uleb128 .LLSDACSE2133-.LLSDACSB2133
.LLSDACSB2133:
	.uleb128 .LEHB79-.LFB2133
	.uleb128 .LEHE79-.LEHB79
	.uleb128 .L423-.LFB2133
	.uleb128 0x0
	.uleb128 .LEHB80-.LFB2133
	.uleb128 .LEHE80-.LEHB80
	.uleb128 0x0
	.uleb128 0x0
.LLSDACSE2133:
	.section	.gnu.linkonce.t._ZSt10_ConstructISt4pairIKSsP5ValueES4_EvPT_RKT0_
	.section	.gnu.linkonce.t._ZdlPvS_,"ax",@progbits
	.align 2
	.weak	_ZdlPvS_
	.type	_ZdlPvS_, @function
_ZdlPvS_:
.LFB57:
	pushq	%rbp
.LCFI268:
	movq	%rsp, %rbp
.LCFI269:
	movq	%rdi, -8(%rbp)
	movq	%rsi, -16(%rbp)
	leave
	ret
.L425:
.LFE57:
	.size	_ZdlPvS_, .-_ZdlPvS_
	.section	.gnu.linkonce.t._ZNSt4pairIKSsP5ValueEC1ERKS3_,"ax",@progbits
	.align 2
	.weak	_ZNSt4pairIKSsP5ValueEC1ERKS3_
	.type	_ZNSt4pairIKSsP5ValueEC1ERKS3_, @function
_ZNSt4pairIKSsP5ValueEC1ERKS3_:
.LFB2008:
	pushq	%rbp
.LCFI270:
	movq	%rsp, %rbp
.LCFI271:
	subq	$16, %rsp
.LCFI272:
	movq	%rdi, -8(%rbp)
	movq	%rsi, -16(%rbp)
	movq	-16(%rbp), %rsi
	movq	-8(%rbp), %rdi
	call	_ZNSsC1ERKSs
	movq	-8(%rbp), %rdx
	movq	-16(%rbp), %rax
	movq	8(%rax), %rax
	movq	%rax, 8(%rdx)
	leave
	ret
.L428:
.LFE2008:
	.size	_ZNSt4pairIKSsP5ValueEC1ERKS3_, .-_ZNSt4pairIKSsP5ValueEC1ERKS3_
	.section	.gnu.linkonce.t._ZnwmPv,"ax",@progbits
	.align 2
	.weak	_ZnwmPv
	.type	_ZnwmPv, @function
_ZnwmPv:
.LFB55:
	pushq	%rbp
.LCFI273:
	movq	%rsp, %rbp
.LCFI274:
	movq	%rdi, -8(%rbp)
	movq	%rsi, -16(%rbp)
	movq	-16(%rbp), %rax
.L431:
	leave
	ret
.LFE55:
	.size	_ZnwmPv, .-_ZnwmPv
	.section	.gnu.linkonce.t._ZN9__gnu_cxx13new_allocatorISt13_Rb_tree_nodeISt4pairIKSsP5ValueEEE8allocateEmPKv,"ax",@progbits
	.align 2
	.weak	_ZN9__gnu_cxx13new_allocatorISt13_Rb_tree_nodeISt4pairIKSsP5ValueEEE8allocateEmPKv
	.type	_ZN9__gnu_cxx13new_allocatorISt13_Rb_tree_nodeISt4pairIKSsP5ValueEEE8allocateEmPKv, @function
_ZN9__gnu_cxx13new_allocatorISt13_Rb_tree_nodeISt4pairIKSsP5ValueEEE8allocateEmPKv:
.LFB2134:
	pushq	%rbp
.LCFI275:
	movq	%rsp, %rbp
.LCFI276:
	subq	$32, %rsp
.LCFI277:
	movq	%rdi, -8(%rbp)
	movq	%rsi, -16(%rbp)
	movq	%rdx, -24(%rbp)
	movq	-16(%rbp), %rdx
	movq	%rdx, %rax
	addq	%rax, %rax
	addq	%rdx, %rax
	movq	%rax, %rdi
	salq	$4, %rdi
	call	_Znwm
	leave
	ret
.LFE2134:
	.size	_ZN9__gnu_cxx13new_allocatorISt13_Rb_tree_nodeISt4pairIKSsP5ValueEEE8allocateEmPKv, .-_ZN9__gnu_cxx13new_allocatorISt13_Rb_tree_nodeISt4pairIKSsP5ValueEEE8allocateEmPKv
	.text
	.align 2
	.type	_Z41__static_initialization_and_destruction_0ii, @function
_Z41__static_initialization_and_destruction_0ii:
.LFB2135:
	pushq	%rbp
.LCFI278:
	movq	%rsp, %rbp
.LCFI279:
	subq	$16, %rsp
.LCFI280:
	movl	%edi, -4(%rbp)
	movl	%esi, -8(%rbp)
	cmpl	$65535, -8(%rbp)
	jne	.L435
	cmpl	$1, -4(%rbp)
	jne	.L435
	movl	$_ZSt8__ioinit, %edi
	call	_ZNSt8ios_base4InitC1Ev
	movl	$__dso_handle, %edx
	movl	$0, %esi
	movl	$__tcf_0, %edi
	call	__cxa_atexit
.L435:
	cmpl	$65535, -8(%rbp)
	jne	.L436
	cmpl	$1, -4(%rbp)
	jne	.L436
	movl	$g_gc, %edi
	call	_ZN2GCC1Ev
	movl	$__dso_handle, %edx
	movl	$0, %esi
	movl	$__tcf_1, %edi
	call	__cxa_atexit
.L436:
	cmpl	$65535, -8(%rbp)
	jne	.L434
	cmpl	$1, -4(%rbp)
	jne	.L434
	movl	$g_root, %edi
	call	_ZN5ValueC1Ev
	movl	$__dso_handle, %edx
	movl	$0, %esi
	movl	$__tcf_2, %edi
	call	__cxa_atexit
.L434:
	leave
	ret
.LFE2135:
	.size	_Z41__static_initialization_and_destruction_0ii, .-_Z41__static_initialization_and_destruction_0ii
	.align 2
	.type	__tcf_2, @function
__tcf_2:
.LFB2147:
	pushq	%rbp
.LCFI281:
	movq	%rsp, %rbp
.LCFI282:
	subq	$16, %rsp
.LCFI283:
	movq	%rdi, -8(%rbp)
	movl	$g_root, %edi
	call	_ZN5ValueD1Ev
	leave
	ret
.LFE2147:
	.size	__tcf_2, .-__tcf_2
	.section	.gnu.linkonce.t._ZN5ValueD1Ev,"ax",@progbits
	.align 2
	.weak	_ZN5ValueD1Ev
	.type	_ZN5ValueD1Ev, @function
_ZN5ValueD1Ev:
.LFB2146:
	pushq	%rbp
.LCFI284:
	movq	%rsp, %rbp
.LCFI285:
	pushq	%rbx
.LCFI286:
	subq	$24, %rsp
.LCFI287:
	movq	%rdi, -16(%rbp)
.L441:
	movq	-16(%rbp), %rdi
	addq	$24, %rdi
.LEHB81:
	call	_ZNSt3mapISsP5ValueSt4lessISsESaISt4pairIKSsS1_EEED1Ev
.LEHE81:
	jmp	.L444
.L448:
	movq	%rax, -24(%rbp)
.L443:
	movq	-24(%rbp), %rbx
	movq	-16(%rbp), %rdi
	addq	$16, %rdi
	call	_ZNSsD1Ev
	movq	%rbx, -24(%rbp)
.L445:
	movq	-24(%rbp), %rdi
.LEHB82:
	call	_Unwind_Resume
.L444:
	movq	-16(%rbp), %rdi
	addq	$16, %rdi
	call	_ZNSsD1Ev
.LEHE82:
	addq	$24, %rsp
	popq	%rbx
	leave
	ret
.LFE2146:
	.size	_ZN5ValueD1Ev, .-_ZN5ValueD1Ev
	.section	.gcc_except_table
.LLSDA2146:
	.byte	0xff
	.byte	0xff
	.byte	0x1
	.uleb128 .LLSDACSE2146-.LLSDACSB2146
.LLSDACSB2146:
	.uleb128 .LEHB81-.LFB2146
	.uleb128 .LEHE81-.LEHB81
	.uleb128 .L448-.LFB2146
	.uleb128 0x0
	.uleb128 .LEHB82-.LFB2146
	.uleb128 .LEHE82-.LEHB82
	.uleb128 0x0
	.uleb128 0x0
.LLSDACSE2146:
	.section	.gnu.linkonce.t._ZN5ValueD1Ev
	.text
	.align 2
	.type	__tcf_1, @function
__tcf_1:
.LFB2143:
	pushq	%rbp
.LCFI288:
	movq	%rsp, %rbp
.LCFI289:
	subq	$16, %rsp
.LCFI290:
	movq	%rdi, -8(%rbp)
	movl	$g_gc, %edi
	call	_ZN2GCD1Ev
	leave
	ret
.LFE2143:
	.size	__tcf_1, .-__tcf_1
	.section	.gnu.linkonce.t._ZN2GCD1Ev,"ax",@progbits
	.align 2
	.weak	_ZN2GCD1Ev
	.type	_ZN2GCD1Ev, @function
_ZN2GCD1Ev:
.LFB2142:
	pushq	%rbp
.LCFI291:
	movq	%rsp, %rbp
.LCFI292:
	subq	$16, %rsp
.LCFI293:
	movq	%rdi, -8(%rbp)
.L452:
	movq	-8(%rbp), %rdi
	addq	$8, %rdi
	call	_ZNSt3setIP5ValueSt4lessIS1_ESaIS1_EED1Ev
	leave
	ret
.LFE2142:
	.size	_ZN2GCD1Ev, .-_ZN2GCD1Ev
	.section	.gnu.linkonce.t._ZNSt3setIP5ValueSt4lessIS1_ESaIS1_EED1Ev,"ax",@progbits
	.align 2
	.weak	_ZNSt3setIP5ValueSt4lessIS1_ESaIS1_EED1Ev
	.type	_ZNSt3setIP5ValueSt4lessIS1_ESaIS1_EED1Ev, @function
_ZNSt3setIP5ValueSt4lessIS1_ESaIS1_EED1Ev:
.LFB2140:
	pushq	%rbp
.LCFI294:
	movq	%rsp, %rbp
.LCFI295:
	subq	$16, %rsp
.LCFI296:
	movq	%rdi, -8(%rbp)
.L457:
	movq	-8(%rbp), %rdi
	call	_ZNSt8_Rb_treeIP5ValueS1_St9_IdentityIS1_ESt4lessIS1_ESaIS1_EED1Ev
	leave
	ret
.LFE2140:
	.size	_ZNSt3setIP5ValueSt4lessIS1_ESaIS1_EED1Ev, .-_ZNSt3setIP5ValueSt4lessIS1_ESaIS1_EED1Ev
	.text
	.align 2
	.type	__tcf_0, @function
__tcf_0:
.LFB2136:
	pushq	%rbp
.LCFI297:
	movq	%rsp, %rbp
.LCFI298:
	subq	$16, %rsp
.LCFI299:
	movq	%rdi, -8(%rbp)
	movl	$_ZSt8__ioinit, %edi
	call	_ZNSt8ios_base4InitD1Ev
	leave
	ret
.LFE2136:
	.size	__tcf_0, .-__tcf_0
	.section	.gnu.linkonce.t._ZNSt8_Rb_treeIP5ValueS1_St9_IdentityIS1_ESt4lessIS1_ESaIS1_EED1Ev,"ax",@progbits
	.align 2
	.weak	_ZNSt8_Rb_treeIP5ValueS1_St9_IdentityIS1_ESt4lessIS1_ESaIS1_EED1Ev
	.type	_ZNSt8_Rb_treeIP5ValueS1_St9_IdentityIS1_ESt4lessIS1_ESaIS1_EED1Ev, @function
_ZNSt8_Rb_treeIP5ValueS1_St9_IdentityIS1_ESt4lessIS1_ESaIS1_EED1Ev:
.LFB2153:
	pushq	%rbp
.LCFI300:
	movq	%rsp, %rbp
.LCFI301:
	pushq	%rbx
.LCFI302:
	subq	$24, %rsp
.LCFI303:
	movq	%rdi, -16(%rbp)
	movq	-16(%rbp), %rdi
.LEHB83:
	call	_ZNSt8_Rb_treeIP5ValueS1_St9_IdentityIS1_ESt4lessIS1_ESaIS1_EE8_M_beginEv
	movq	%rax, %rsi
	movq	-16(%rbp), %rdi
	call	_ZNSt8_Rb_treeIP5ValueS1_St9_IdentityIS1_ESt4lessIS1_ESaIS1_EE8_M_eraseEPSt13_Rb_tree_nodeIS1_E
.LEHE83:
	jmp	.L464
.L468:
	movq	%rax, -24(%rbp)
.L463:
	movq	-24(%rbp), %rbx
	movq	-16(%rbp), %rdi
	call	_ZNSt8_Rb_treeIP5ValueS1_St9_IdentityIS1_ESt4lessIS1_ESaIS1_EE13_Rb_tree_implIS5_Lb0EED1Ev
	movq	%rbx, -24(%rbp)
.L465:
	movq	-24(%rbp), %rdi
.LEHB84:
	call	_Unwind_Resume
.LEHE84:
.L464:
	movq	-16(%rbp), %rdi
	call	_ZNSt8_Rb_treeIP5ValueS1_St9_IdentityIS1_ESt4lessIS1_ESaIS1_EE13_Rb_tree_implIS5_Lb0EED1Ev
	addq	$24, %rsp
	popq	%rbx
	leave
	ret
.LFE2153:
	.size	_ZNSt8_Rb_treeIP5ValueS1_St9_IdentityIS1_ESt4lessIS1_ESaIS1_EED1Ev, .-_ZNSt8_Rb_treeIP5ValueS1_St9_IdentityIS1_ESt4lessIS1_ESaIS1_EED1Ev
	.section	.gcc_except_table
.LLSDA2153:
	.byte	0xff
	.byte	0xff
	.byte	0x1
	.uleb128 .LLSDACSE2153-.LLSDACSB2153
.LLSDACSB2153:
	.uleb128 .LEHB83-.LFB2153
	.uleb128 .LEHE83-.LEHB83
	.uleb128 .L468-.LFB2153
	.uleb128 0x0
	.uleb128 .LEHB84-.LFB2153
	.uleb128 .LEHE84-.LEHB84
	.uleb128 0x0
	.uleb128 0x0
.LLSDACSE2153:
	.section	.gnu.linkonce.t._ZNSt8_Rb_treeIP5ValueS1_St9_IdentityIS1_ESt4lessIS1_ESaIS1_EED1Ev
	.section	.gnu.linkonce.t._ZNSt8_Rb_treeIP5ValueS1_St9_IdentityIS1_ESt4lessIS1_ESaIS1_EE13_Rb_tree_implIS5_Lb0EED1Ev,"ax",@progbits
	.align 2
	.weak	_ZNSt8_Rb_treeIP5ValueS1_St9_IdentityIS1_ESt4lessIS1_ESaIS1_EE13_Rb_tree_implIS5_Lb0EED1Ev
	.type	_ZNSt8_Rb_treeIP5ValueS1_St9_IdentityIS1_ESt4lessIS1_ESaIS1_EE13_Rb_tree_implIS5_Lb0EED1Ev, @function
_ZNSt8_Rb_treeIP5ValueS1_St9_IdentityIS1_ESt4lessIS1_ESaIS1_EE13_Rb_tree_implIS5_Lb0EED1Ev:
.LFB2151:
	pushq	%rbp
.LCFI304:
	movq	%rsp, %rbp
.LCFI305:
	subq	$16, %rsp
.LCFI306:
	movq	%rdi, -8(%rbp)
.L471:
	movq	-8(%rbp), %rdi
	call	_ZNSaISt13_Rb_tree_nodeIP5ValueEED2Ev
	leave
	ret
.L474:
.LFE2151:
	.size	_ZNSt8_Rb_treeIP5ValueS1_St9_IdentityIS1_ESt4lessIS1_ESaIS1_EE13_Rb_tree_implIS5_Lb0EED1Ev, .-_ZNSt8_Rb_treeIP5ValueS1_St9_IdentityIS1_ESt4lessIS1_ESaIS1_EE13_Rb_tree_implIS5_Lb0EED1Ev
	.section	.gnu.linkonce.t._ZNSaISt13_Rb_tree_nodeIP5ValueEED2Ev,"ax",@progbits
	.align 2
	.weak	_ZNSaISt13_Rb_tree_nodeIP5ValueEED2Ev
	.type	_ZNSaISt13_Rb_tree_nodeIP5ValueEED2Ev, @function
_ZNSaISt13_Rb_tree_nodeIP5ValueEED2Ev:
.LFB2155:
	pushq	%rbp
.LCFI307:
	movq	%rsp, %rbp
.LCFI308:
	subq	$16, %rsp
.LCFI309:
	movq	%rdi, -8(%rbp)
.L478:
	movq	-8(%rbp), %rdi
	call	_ZN9__gnu_cxx13new_allocatorISt13_Rb_tree_nodeIP5ValueEED2Ev
	leave
	ret
.L481:
.LFE2155:
	.size	_ZNSaISt13_Rb_tree_nodeIP5ValueEED2Ev, .-_ZNSaISt13_Rb_tree_nodeIP5ValueEED2Ev
	.section	.gnu.linkonce.t._ZNSt8_Rb_treeIP5ValueS1_St9_IdentityIS1_ESt4lessIS1_ESaIS1_EE8_M_eraseEPSt13_Rb_tree_nodeIS1_E,"ax",@progbits
	.align 2
	.weak	_ZNSt8_Rb_treeIP5ValueS1_St9_IdentityIS1_ESt4lessIS1_ESaIS1_EE8_M_eraseEPSt13_Rb_tree_nodeIS1_E
	.type	_ZNSt8_Rb_treeIP5ValueS1_St9_IdentityIS1_ESt4lessIS1_ESaIS1_EE8_M_eraseEPSt13_Rb_tree_nodeIS1_E, @function
_ZNSt8_Rb_treeIP5ValueS1_St9_IdentityIS1_ESt4lessIS1_ESaIS1_EE8_M_eraseEPSt13_Rb_tree_nodeIS1_E:
.LFB2157:
	pushq	%rbp
.LCFI310:
	movq	%rsp, %rbp
.LCFI311:
	subq	$32, %rsp
.LCFI312:
	movq	%rdi, -8(%rbp)
	movq	%rsi, -16(%rbp)
.L484:
	cmpq	$0, -16(%rbp)
	je	.L483
	movq	-16(%rbp), %rdi
	call	_ZNSt8_Rb_treeIP5ValueS1_St9_IdentityIS1_ESt4lessIS1_ESaIS1_EE8_S_rightEPSt18_Rb_tree_node_base
	movq	%rax, %rsi
	movq	-8(%rbp), %rdi
	call	_ZNSt8_Rb_treeIP5ValueS1_St9_IdentityIS1_ESt4lessIS1_ESaIS1_EE8_M_eraseEPSt13_Rb_tree_nodeIS1_E
	movq	-16(%rbp), %rdi
	call	_ZNSt8_Rb_treeIP5ValueS1_St9_IdentityIS1_ESt4lessIS1_ESaIS1_EE7_S_leftEPSt18_Rb_tree_node_base
	movq	%rax, -24(%rbp)
	movq	-16(%rbp), %rsi
	movq	-8(%rbp), %rdi
	call	_ZNSt8_Rb_treeIP5ValueS1_St9_IdentityIS1_ESt4lessIS1_ESaIS1_EE12destroy_nodeEPSt13_Rb_tree_nodeIS1_E
	movq	-24(%rbp), %rax
	movq	%rax, -16(%rbp)
	jmp	.L484
.L483:
	leave
	ret
.LFE2157:
	.size	_ZNSt8_Rb_treeIP5ValueS1_St9_IdentityIS1_ESt4lessIS1_ESaIS1_EE8_M_eraseEPSt13_Rb_tree_nodeIS1_E, .-_ZNSt8_Rb_treeIP5ValueS1_St9_IdentityIS1_ESt4lessIS1_ESaIS1_EE8_M_eraseEPSt13_Rb_tree_nodeIS1_E
	.section	.gnu.linkonce.t._ZNSt8_Rb_treeIP5ValueS1_St9_IdentityIS1_ESt4lessIS1_ESaIS1_EE8_M_beginEv,"ax",@progbits
	.align 2
	.weak	_ZNSt8_Rb_treeIP5ValueS1_St9_IdentityIS1_ESt4lessIS1_ESaIS1_EE8_M_beginEv
	.type	_ZNSt8_Rb_treeIP5ValueS1_St9_IdentityIS1_ESt4lessIS1_ESaIS1_EE8_M_beginEv, @function
_ZNSt8_Rb_treeIP5ValueS1_St9_IdentityIS1_ESt4lessIS1_ESaIS1_EE8_M_beginEv:
.LFB2158:
	pushq	%rbp
.LCFI313:
	movq	%rsp, %rbp
.LCFI314:
	movq	%rdi, -8(%rbp)
	movq	-8(%rbp), %rax
	movq	16(%rax), %rax
	leave
	ret
.LFE2158:
	.size	_ZNSt8_Rb_treeIP5ValueS1_St9_IdentityIS1_ESt4lessIS1_ESaIS1_EE8_M_beginEv, .-_ZNSt8_Rb_treeIP5ValueS1_St9_IdentityIS1_ESt4lessIS1_ESaIS1_EE8_M_beginEv
	.section	.gnu.linkonce.t._ZN9__gnu_cxx13new_allocatorISt13_Rb_tree_nodeIP5ValueEED2Ev,"ax",@progbits
	.align 2
	.weak	_ZN9__gnu_cxx13new_allocatorISt13_Rb_tree_nodeIP5ValueEED2Ev
	.type	_ZN9__gnu_cxx13new_allocatorISt13_Rb_tree_nodeIP5ValueEED2Ev, @function
_ZN9__gnu_cxx13new_allocatorISt13_Rb_tree_nodeIP5ValueEED2Ev:
.LFB2160:
	pushq	%rbp
.LCFI315:
	movq	%rsp, %rbp
.LCFI316:
	movq	%rdi, -8(%rbp)
	leave
	ret
.L490:
.LFE2160:
	.size	_ZN9__gnu_cxx13new_allocatorISt13_Rb_tree_nodeIP5ValueEED2Ev, .-_ZN9__gnu_cxx13new_allocatorISt13_Rb_tree_nodeIP5ValueEED2Ev
	.section	.gnu.linkonce.t._ZNSt8_Rb_treeIP5ValueS1_St9_IdentityIS1_ESt4lessIS1_ESaIS1_EE8_S_rightEPSt18_Rb_tree_node_base,"ax",@progbits
	.align 2
	.weak	_ZNSt8_Rb_treeIP5ValueS1_St9_IdentityIS1_ESt4lessIS1_ESaIS1_EE8_S_rightEPSt18_Rb_tree_node_base
	.type	_ZNSt8_Rb_treeIP5ValueS1_St9_IdentityIS1_ESt4lessIS1_ESaIS1_EE8_S_rightEPSt18_Rb_tree_node_base, @function
_ZNSt8_Rb_treeIP5ValueS1_St9_IdentityIS1_ESt4lessIS1_ESaIS1_EE8_S_rightEPSt18_Rb_tree_node_base:
.LFB2162:
	pushq	%rbp
.LCFI317:
	movq	%rsp, %rbp
.LCFI318:
	movq	%rdi, -8(%rbp)
	movq	-8(%rbp), %rax
	movq	24(%rax), %rax
	leave
	ret
.LFE2162:
	.size	_ZNSt8_Rb_treeIP5ValueS1_St9_IdentityIS1_ESt4lessIS1_ESaIS1_EE8_S_rightEPSt18_Rb_tree_node_base, .-_ZNSt8_Rb_treeIP5ValueS1_St9_IdentityIS1_ESt4lessIS1_ESaIS1_EE8_S_rightEPSt18_Rb_tree_node_base
	.section	.gnu.linkonce.t._ZNSt8_Rb_treeIP5ValueS1_St9_IdentityIS1_ESt4lessIS1_ESaIS1_EE7_S_leftEPSt18_Rb_tree_node_base,"ax",@progbits
	.align 2
	.weak	_ZNSt8_Rb_treeIP5ValueS1_St9_IdentityIS1_ESt4lessIS1_ESaIS1_EE7_S_leftEPSt18_Rb_tree_node_base
	.type	_ZNSt8_Rb_treeIP5ValueS1_St9_IdentityIS1_ESt4lessIS1_ESaIS1_EE7_S_leftEPSt18_Rb_tree_node_base, @function
_ZNSt8_Rb_treeIP5ValueS1_St9_IdentityIS1_ESt4lessIS1_ESaIS1_EE7_S_leftEPSt18_Rb_tree_node_base:
.LFB2163:
	pushq	%rbp
.LCFI319:
	movq	%rsp, %rbp
.LCFI320:
	movq	%rdi, -8(%rbp)
	movq	-8(%rbp), %rax
	movq	16(%rax), %rax
	leave
	ret
.LFE2163:
	.size	_ZNSt8_Rb_treeIP5ValueS1_St9_IdentityIS1_ESt4lessIS1_ESaIS1_EE7_S_leftEPSt18_Rb_tree_node_base, .-_ZNSt8_Rb_treeIP5ValueS1_St9_IdentityIS1_ESt4lessIS1_ESaIS1_EE7_S_leftEPSt18_Rb_tree_node_base
	.section	.gnu.linkonce.t._ZNSt8_Rb_treeIP5ValueS1_St9_IdentityIS1_ESt4lessIS1_ESaIS1_EE12destroy_nodeEPSt13_Rb_tree_nodeIS1_E,"ax",@progbits
	.align 2
	.weak	_ZNSt8_Rb_treeIP5ValueS1_St9_IdentityIS1_ESt4lessIS1_ESaIS1_EE12destroy_nodeEPSt13_Rb_tree_nodeIS1_E
	.type	_ZNSt8_Rb_treeIP5ValueS1_St9_IdentityIS1_ESt4lessIS1_ESaIS1_EE12destroy_nodeEPSt13_Rb_tree_nodeIS1_E, @function
_ZNSt8_Rb_treeIP5ValueS1_St9_IdentityIS1_ESt4lessIS1_ESaIS1_EE12destroy_nodeEPSt13_Rb_tree_nodeIS1_E:
.LFB2164:
	pushq	%rbp
.LCFI321:
	movq	%rsp, %rbp
.LCFI322:
	subq	$16, %rsp
.LCFI323:
	movq	%rdi, -8(%rbp)
	movq	%rsi, -16(%rbp)
	movq	-16(%rbp), %rdi
	addq	$32, %rdi
	call	_ZSt8_DestroyIP5ValueEvPT_
	movq	-16(%rbp), %rsi
	movq	-8(%rbp), %rdi
	call	_ZNSt8_Rb_treeIP5ValueS1_St9_IdentityIS1_ESt4lessIS1_ESaIS1_EE11_M_put_nodeEPSt13_Rb_tree_nodeIS1_E
	leave
	ret
.LFE2164:
	.size	_ZNSt8_Rb_treeIP5ValueS1_St9_IdentityIS1_ESt4lessIS1_ESaIS1_EE12destroy_nodeEPSt13_Rb_tree_nodeIS1_E, .-_ZNSt8_Rb_treeIP5ValueS1_St9_IdentityIS1_ESt4lessIS1_ESaIS1_EE12destroy_nodeEPSt13_Rb_tree_nodeIS1_E
	.section	.gnu.linkonce.t._ZSt8_DestroyIP5ValueEvPT_,"ax",@progbits
	.align 2
	.weak	_ZSt8_DestroyIP5ValueEvPT_
	.type	_ZSt8_DestroyIP5ValueEvPT_, @function
_ZSt8_DestroyIP5ValueEvPT_:
.LFB2165:
	pushq	%rbp
.LCFI324:
	movq	%rsp, %rbp
.LCFI325:
	movq	%rdi, -8(%rbp)
	leave
	ret
.LFE2165:
	.size	_ZSt8_DestroyIP5ValueEvPT_, .-_ZSt8_DestroyIP5ValueEvPT_
	.section	.gnu.linkonce.t._ZNSt8_Rb_treeIP5ValueS1_St9_IdentityIS1_ESt4lessIS1_ESaIS1_EE11_M_put_nodeEPSt13_Rb_tree_nodeIS1_E,"ax",@progbits
	.align 2
	.weak	_ZNSt8_Rb_treeIP5ValueS1_St9_IdentityIS1_ESt4lessIS1_ESaIS1_EE11_M_put_nodeEPSt13_Rb_tree_nodeIS1_E
	.type	_ZNSt8_Rb_treeIP5ValueS1_St9_IdentityIS1_ESt4lessIS1_ESaIS1_EE11_M_put_nodeEPSt13_Rb_tree_nodeIS1_E, @function
_ZNSt8_Rb_treeIP5ValueS1_St9_IdentityIS1_ESt4lessIS1_ESaIS1_EE11_M_put_nodeEPSt13_Rb_tree_nodeIS1_E:
.LFB2166:
	pushq	%rbp
.LCFI326:
	movq	%rsp, %rbp
.LCFI327:
	subq	$16, %rsp
.LCFI328:
	movq	%rdi, -8(%rbp)
	movq	%rsi, -16(%rbp)
	movq	-16(%rbp), %rsi
	movq	-8(%rbp), %rdi
	movl	$1, %edx
	call	_ZN9__gnu_cxx13new_allocatorISt13_Rb_tree_nodeIP5ValueEE10deallocateEPS4_m
	leave
	ret
.LFE2166:
	.size	_ZNSt8_Rb_treeIP5ValueS1_St9_IdentityIS1_ESt4lessIS1_ESaIS1_EE11_M_put_nodeEPSt13_Rb_tree_nodeIS1_E, .-_ZNSt8_Rb_treeIP5ValueS1_St9_IdentityIS1_ESt4lessIS1_ESaIS1_EE11_M_put_nodeEPSt13_Rb_tree_nodeIS1_E
	.section	.gnu.linkonce.t._ZN9__gnu_cxx13new_allocatorISt13_Rb_tree_nodeIP5ValueEE10deallocateEPS4_m,"ax",@progbits
	.align 2
	.weak	_ZN9__gnu_cxx13new_allocatorISt13_Rb_tree_nodeIP5ValueEE10deallocateEPS4_m
	.type	_ZN9__gnu_cxx13new_allocatorISt13_Rb_tree_nodeIP5ValueEE10deallocateEPS4_m, @function
_ZN9__gnu_cxx13new_allocatorISt13_Rb_tree_nodeIP5ValueEE10deallocateEPS4_m:
.LFB2167:
	pushq	%rbp
.LCFI329:
	movq	%rsp, %rbp
.LCFI330:
	subq	$32, %rsp
.LCFI331:
	movq	%rdi, -8(%rbp)
	movq	%rsi, -16(%rbp)
	movq	%rdx, -24(%rbp)
	movq	-16(%rbp), %rdi
	call	_ZdlPv
	leave
	ret
.LFE2167:
	.size	_ZN9__gnu_cxx13new_allocatorISt13_Rb_tree_nodeIP5ValueEE10deallocateEPS4_m, .-_ZN9__gnu_cxx13new_allocatorISt13_Rb_tree_nodeIP5ValueEE10deallocateEPS4_m
	.text
	.align 2
	.type	_GLOBAL__I__ZN5Value7ShowAllEv, @function
_GLOBAL__I__ZN5Value7ShowAllEv:
.LFB2168:
	pushq	%rbp
.LCFI332:
	movq	%rsp, %rbp
.LCFI333:
	movl	$65535, %esi
	movl	$1, %edi
	call	_Z41__static_initialization_and_destruction_0ii
	leave
	ret
.LFE2168:
	.size	_GLOBAL__I__ZN5Value7ShowAllEv, .-_GLOBAL__I__ZN5Value7ShowAllEv
	.section	.ctors,"aw",@progbits
	.align 8
	.quad	_GLOBAL__I__ZN5Value7ShowAllEv
	.section	.eh_frame,"a",@progbits
.Lframe1:
	.long	.LECIE1-.LSCIE1
.LSCIE1:
	.long	0x0
	.byte	0x1
	.string	"zPL"
	.uleb128 0x1
	.sleb128 -8
	.byte	0x10
	.uleb128 0xa
	.byte	0x0
	.quad	__gxx_personality_v0
	.byte	0x0
	.byte	0xc
	.uleb128 0x7
	.uleb128 0x8
	.byte	0x90
	.uleb128 0x1
	.align 8
.LECIE1:
.LSFDE1:
	.long	.LEFDE1-.LASFDE1
.LASFDE1:
	.long	.LASFDE1-.Lframe1
	.quad	.LFB1361
	.quad	.LFE1361-.LFB1361
	.uleb128 0x8
	.quad	0x0
	.byte	0x4
	.long	.LCFI0-.LFB1361
	.byte	0xe
	.uleb128 0x10
	.byte	0x86
	.uleb128 0x2
	.byte	0x4
	.long	.LCFI1-.LCFI0
	.byte	0xd
	.uleb128 0x6
	.align 8
.LEFDE1:
.LSFDE3:
	.long	.LEFDE3-.LASFDE3
.LASFDE3:
	.long	.LASFDE3-.Lframe1
	.quad	.LFB1940
	.quad	.LFE1940-.LFB1940
	.uleb128 0x8
	.quad	0x0
	.byte	0x4
	.long	.LCFI3-.LFB1940
	.byte	0xe
	.uleb128 0x10
	.byte	0x86
	.uleb128 0x2
	.byte	0x4
	.long	.LCFI4-.LCFI3
	.byte	0xd
	.uleb128 0x6
	.align 8
.LEFDE3:
.LSFDE5:
	.long	.LEFDE5-.LASFDE5
.LASFDE5:
	.long	.LASFDE5-.Lframe1
	.quad	.LFB1941
	.quad	.LFE1941-.LFB1941
	.uleb128 0x8
	.quad	0x0
	.byte	0x4
	.long	.LCFI5-.LFB1941
	.byte	0xe
	.uleb128 0x10
	.byte	0x86
	.uleb128 0x2
	.byte	0x4
	.long	.LCFI6-.LCFI5
	.byte	0xd
	.uleb128 0x6
	.align 8
.LEFDE5:
.LSFDE7:
	.long	.LEFDE7-.LASFDE7
.LASFDE7:
	.long	.LASFDE7-.Lframe1
	.quad	.LFB1942
	.quad	.LFE1942-.LFB1942
	.uleb128 0x8
	.quad	0x0
	.byte	0x4
	.long	.LCFI8-.LFB1942
	.byte	0xe
	.uleb128 0x10
	.byte	0x86
	.uleb128 0x2
	.byte	0x4
	.long	.LCFI9-.LCFI8
	.byte	0xd
	.uleb128 0x6
	.align 8
.LEFDE7:
.LSFDE9:
	.long	.LEFDE9-.LASFDE9
.LASFDE9:
	.long	.LASFDE9-.Lframe1
	.quad	.LFB1943
	.quad	.LFE1943-.LFB1943
	.uleb128 0x8
	.quad	.LLSDA1943
	.byte	0x4
	.long	.LCFI11-.LFB1943
	.byte	0xe
	.uleb128 0x10
	.byte	0x86
	.uleb128 0x2
	.byte	0x4
	.long	.LCFI12-.LCFI11
	.byte	0xd
	.uleb128 0x6
	.byte	0x4
	.long	.LCFI14-.LCFI12
	.byte	0x83
	.uleb128 0x3
	.align 8
.LEFDE9:
.LSFDE11:
	.long	.LEFDE11-.LASFDE11
.LASFDE11:
	.long	.LASFDE11-.Lframe1
	.quad	.LFB1926
	.quad	.LFE1926-.LFB1926
	.uleb128 0x8
	.quad	.LLSDA1926
	.byte	0x4
	.long	.LCFI15-.LFB1926
	.byte	0xe
	.uleb128 0x10
	.byte	0x86
	.uleb128 0x2
	.byte	0x4
	.long	.LCFI16-.LCFI15
	.byte	0xd
	.uleb128 0x6
	.byte	0x4
	.long	.LCFI18-.LCFI16
	.byte	0x83
	.uleb128 0x3
	.align 8
.LEFDE11:
.LSFDE13:
	.long	.LEFDE13-.LASFDE13
.LASFDE13:
	.long	.LASFDE13-.Lframe1
	.quad	.LFB1925
	.quad	.LFE1925-.LFB1925
	.uleb128 0x8
	.quad	.LLSDA1925
	.byte	0x4
	.long	.LCFI19-.LFB1925
	.byte	0xe
	.uleb128 0x10
	.byte	0x86
	.uleb128 0x2
	.byte	0x4
	.long	.LCFI20-.LCFI19
	.byte	0xd
	.uleb128 0x6
	.byte	0x4
	.long	.LCFI22-.LCFI20
	.byte	0x83
	.uleb128 0x3
	.align 8
.LEFDE13:
.LSFDE15:
	.long	.LEFDE15-.LASFDE15
.LASFDE15:
	.long	.LASFDE15-.Lframe1
	.quad	.LFB1944
	.quad	.LFE1944-.LFB1944
	.uleb128 0x8
	.quad	0x0
	.byte	0x4
	.long	.LCFI23-.LFB1944
	.byte	0xe
	.uleb128 0x10
	.byte	0x86
	.uleb128 0x2
	.byte	0x4
	.long	.LCFI24-.LCFI23
	.byte	0xd
	.uleb128 0x6
	.align 8
.LEFDE15:
.LSFDE17:
	.long	.LEFDE17-.LASFDE17
.LASFDE17:
	.long	.LASFDE17-.Lframe1
	.quad	.LFB1945
	.quad	.LFE1945-.LFB1945
	.uleb128 0x8
	.quad	0x0
	.byte	0x4
	.long	.LCFI25-.LFB1945
	.byte	0xe
	.uleb128 0x10
	.byte	0x86
	.uleb128 0x2
	.byte	0x4
	.long	.LCFI26-.LCFI25
	.byte	0xd
	.uleb128 0x6
	.align 8
.LEFDE17:
.LSFDE19:
	.long	.LEFDE19-.LASFDE19
.LASFDE19:
	.long	.LASFDE19-.Lframe1
	.quad	.LFB1946
	.quad	.LFE1946-.LFB1946
	.uleb128 0x8
	.quad	0x0
	.byte	0x4
	.long	.LCFI27-.LFB1946
	.byte	0xe
	.uleb128 0x10
	.byte	0x86
	.uleb128 0x2
	.byte	0x4
	.long	.LCFI28-.LCFI27
	.byte	0xd
	.uleb128 0x6
	.align 8
.LEFDE19:
.LSFDE21:
	.long	.LEFDE21-.LASFDE21
.LASFDE21:
	.long	.LASFDE21-.Lframe1
	.quad	.LFB1948
	.quad	.LFE1948-.LFB1948
	.uleb128 0x8
	.quad	.LLSDA1948
	.byte	0x4
	.long	.LCFI30-.LFB1948
	.byte	0xe
	.uleb128 0x10
	.byte	0x86
	.uleb128 0x2
	.byte	0x4
	.long	.LCFI31-.LCFI30
	.byte	0xd
	.uleb128 0x6
	.byte	0x4
	.long	.LCFI33-.LCFI31
	.byte	0x83
	.uleb128 0x3
	.align 8
.LEFDE21:
.LSFDE23:
	.long	.LEFDE23-.LASFDE23
.LASFDE23:
	.long	.LASFDE23-.Lframe1
	.quad	.LFB1931
	.quad	.LFE1931-.LFB1931
	.uleb128 0x8
	.quad	0x0
	.byte	0x4
	.long	.LCFI34-.LFB1931
	.byte	0xe
	.uleb128 0x10
	.byte	0x86
	.uleb128 0x2
	.byte	0x4
	.long	.LCFI35-.LCFI34
	.byte	0xd
	.uleb128 0x6
	.align 8
.LEFDE23:
.LSFDE25:
	.long	.LEFDE25-.LASFDE25
.LASFDE25:
	.long	.LASFDE25-.Lframe1
	.quad	.LFB1949
	.quad	.LFE1949-.LFB1949
	.uleb128 0x8
	.quad	.LLSDA1949
	.byte	0x4
	.long	.LCFI37-.LFB1949
	.byte	0xe
	.uleb128 0x10
	.byte	0x86
	.uleb128 0x2
	.byte	0x4
	.long	.LCFI38-.LCFI37
	.byte	0xd
	.uleb128 0x6
	.byte	0x4
	.long	.LCFI40-.LCFI38
	.byte	0x83
	.uleb128 0x3
	.align 8
.LEFDE25:
.LSFDE27:
	.long	.LEFDE27-.LASFDE27
.LASFDE27:
	.long	.LASFDE27-.Lframe1
	.quad	.LFB1951
	.quad	.LFE1951-.LFB1951
	.uleb128 0x8
	.quad	.LLSDA1951
	.byte	0x4
	.long	.LCFI41-.LFB1951
	.byte	0xe
	.uleb128 0x10
	.byte	0x86
	.uleb128 0x2
	.byte	0x4
	.long	.LCFI42-.LCFI41
	.byte	0xd
	.uleb128 0x6
	.byte	0x4
	.long	.LCFI44-.LCFI42
	.byte	0x83
	.uleb128 0x3
	.align 8
.LEFDE27:
.LSFDE29:
	.long	.LEFDE29-.LASFDE29
.LASFDE29:
	.long	.LASFDE29-.Lframe1
	.quad	.LFB1952
	.quad	.LFE1952-.LFB1952
	.uleb128 0x8
	.quad	.LLSDA1952
	.byte	0x4
	.long	.LCFI45-.LFB1952
	.byte	0xe
	.uleb128 0x10
	.byte	0x86
	.uleb128 0x2
	.byte	0x4
	.long	.LCFI46-.LCFI45
	.byte	0xd
	.uleb128 0x6
	.byte	0x4
	.long	.LCFI48-.LCFI46
	.byte	0x83
	.uleb128 0x3
	.align 8
.LEFDE29:
.LSFDE31:
	.long	.LEFDE31-.LASFDE31
.LASFDE31:
	.long	.LASFDE31-.Lframe1
	.quad	.LFB1954
	.quad	.LFE1954-.LFB1954
	.uleb128 0x8
	.quad	.LLSDA1954
	.byte	0x4
	.long	.LCFI49-.LFB1954
	.byte	0xe
	.uleb128 0x10
	.byte	0x86
	.uleb128 0x2
	.byte	0x4
	.long	.LCFI50-.LCFI49
	.byte	0xd
	.uleb128 0x6
	.byte	0x4
	.long	.LCFI52-.LCFI50
	.byte	0x83
	.uleb128 0x3
	.align 8
.LEFDE31:
.LSFDE33:
	.long	.LEFDE33-.LASFDE33
.LASFDE33:
	.long	.LASFDE33-.Lframe1
	.quad	.LFB1955
	.quad	.LFE1955-.LFB1955
	.uleb128 0x8
	.quad	.LLSDA1955
	.byte	0x4
	.long	.LCFI53-.LFB1955
	.byte	0xe
	.uleb128 0x10
	.byte	0x86
	.uleb128 0x2
	.byte	0x4
	.long	.LCFI54-.LCFI53
	.byte	0xd
	.uleb128 0x6
	.byte	0x4
	.long	.LCFI56-.LCFI54
	.byte	0x83
	.uleb128 0x3
	.align 8
.LEFDE33:
.LSFDE35:
	.long	.LEFDE35-.LASFDE35
.LASFDE35:
	.long	.LASFDE35-.Lframe1
	.quad	.LFB1956
	.quad	.LFE1956-.LFB1956
	.uleb128 0x8
	.quad	.LLSDA1956
	.byte	0x4
	.long	.LCFI57-.LFB1956
	.byte	0xe
	.uleb128 0x10
	.byte	0x86
	.uleb128 0x2
	.byte	0x4
	.long	.LCFI58-.LCFI57
	.byte	0xd
	.uleb128 0x6
	.byte	0x4
	.long	.LCFI60-.LCFI58
	.byte	0x83
	.uleb128 0x3
	.align 8
.LEFDE35:
.LSFDE37:
	.long	.LEFDE37-.LASFDE37
.LASFDE37:
	.long	.LASFDE37-.Lframe1
	.quad	.LFB1957
	.quad	.LFE1957-.LFB1957
	.uleb128 0x8
	.quad	0x0
	.byte	0x4
	.long	.LCFI61-.LFB1957
	.byte	0xe
	.uleb128 0x10
	.byte	0x86
	.uleb128 0x2
	.byte	0x4
	.long	.LCFI62-.LCFI61
	.byte	0xd
	.uleb128 0x6
	.align 8
.LEFDE37:
.LSFDE39:
	.long	.LEFDE39-.LASFDE39
.LASFDE39:
	.long	.LASFDE39-.Lframe1
	.quad	.LFB1958
	.quad	.LFE1958-.LFB1958
	.uleb128 0x8
	.quad	0x0
	.byte	0x4
	.long	.LCFI63-.LFB1958
	.byte	0xe
	.uleb128 0x10
	.byte	0x86
	.uleb128 0x2
	.byte	0x4
	.long	.LCFI64-.LCFI63
	.byte	0xd
	.uleb128 0x6
	.align 8
.LEFDE39:
.LSFDE41:
	.long	.LEFDE41-.LASFDE41
.LASFDE41:
	.long	.LASFDE41-.Lframe1
	.quad	.LFB1959
	.quad	.LFE1959-.LFB1959
	.uleb128 0x8
	.quad	0x0
	.byte	0x4
	.long	.LCFI66-.LFB1959
	.byte	0xe
	.uleb128 0x10
	.byte	0x86
	.uleb128 0x2
	.byte	0x4
	.long	.LCFI67-.LCFI66
	.byte	0xd
	.uleb128 0x6
	.align 8
.LEFDE41:
.LSFDE43:
	.long	.LEFDE43-.LASFDE43
.LASFDE43:
	.long	.LASFDE43-.Lframe1
	.quad	.LFB1960
	.quad	.LFE1960-.LFB1960
	.uleb128 0x8
	.quad	0x0
	.byte	0x4
	.long	.LCFI69-.LFB1960
	.byte	0xe
	.uleb128 0x10
	.byte	0x86
	.uleb128 0x2
	.byte	0x4
	.long	.LCFI70-.LCFI69
	.byte	0xd
	.uleb128 0x6
	.align 8
.LEFDE43:
.LSFDE45:
	.long	.LEFDE45-.LASFDE45
.LASFDE45:
	.long	.LASFDE45-.Lframe1
	.quad	.LFB1961
	.quad	.LFE1961-.LFB1961
	.uleb128 0x8
	.quad	0x0
	.byte	0x4
	.long	.LCFI72-.LFB1961
	.byte	0xe
	.uleb128 0x10
	.byte	0x86
	.uleb128 0x2
	.byte	0x4
	.long	.LCFI73-.LCFI72
	.byte	0xd
	.uleb128 0x6
	.align 8
.LEFDE45:
.LSFDE47:
	.long	.LEFDE47-.LASFDE47
.LASFDE47:
	.long	.LASFDE47-.Lframe1
	.quad	.LFB1985
	.quad	.LFE1985-.LFB1985
	.uleb128 0x8
	.quad	.LLSDA1985
	.byte	0x4
	.long	.LCFI74-.LFB1985
	.byte	0xe
	.uleb128 0x10
	.byte	0x86
	.uleb128 0x2
	.byte	0x4
	.long	.LCFI75-.LCFI74
	.byte	0xd
	.uleb128 0x6
	.byte	0x4
	.long	.LCFI77-.LCFI75
	.byte	0x83
	.uleb128 0x3
	.align 8
.LEFDE47:
.LSFDE49:
	.long	.LEFDE49-.LASFDE49
.LASFDE49:
	.long	.LASFDE49-.Lframe1
	.quad	.LFB1991
	.quad	.LFE1991-.LFB1991
	.uleb128 0x8
	.quad	.LLSDA1991
	.byte	0x4
	.long	.LCFI78-.LFB1991
	.byte	0xe
	.uleb128 0x10
	.byte	0x86
	.uleb128 0x2
	.byte	0x4
	.long	.LCFI79-.LCFI78
	.byte	0xd
	.uleb128 0x6
	.byte	0x4
	.long	.LCFI81-.LCFI79
	.byte	0x83
	.uleb128 0x3
	.align 8
.LEFDE49:
.LSFDE51:
	.long	.LEFDE51-.LASFDE51
.LASFDE51:
	.long	.LASFDE51-.Lframe1
	.quad	.LFB1989
	.quad	.LFE1989-.LFB1989
	.uleb128 0x8
	.quad	0x0
	.byte	0x4
	.long	.LCFI82-.LFB1989
	.byte	0xe
	.uleb128 0x10
	.byte	0x86
	.uleb128 0x2
	.byte	0x4
	.long	.LCFI83-.LCFI82
	.byte	0xd
	.uleb128 0x6
	.align 8
.LEFDE51:
.LSFDE53:
	.long	.LEFDE53-.LASFDE53
.LASFDE53:
	.long	.LASFDE53-.Lframe1
	.quad	.LFB1994
	.quad	.LFE1994-.LFB1994
	.uleb128 0x8
	.quad	.LLSDA1994
	.byte	0x4
	.long	.LCFI85-.LFB1994
	.byte	0xe
	.uleb128 0x10
	.byte	0x86
	.uleb128 0x2
	.byte	0x4
	.long	.LCFI86-.LCFI85
	.byte	0xd
	.uleb128 0x6
	.byte	0x4
	.long	.LCFI88-.LCFI86
	.byte	0x83
	.uleb128 0x3
	.align 8
.LEFDE53:
.LSFDE55:
	.long	.LEFDE55-.LASFDE55
.LASFDE55:
	.long	.LASFDE55-.Lframe1
	.quad	.LFB235
	.quad	.LFE235-.LFB235
	.uleb128 0x8
	.quad	0x0
	.byte	0x4
	.long	.LCFI89-.LFB235
	.byte	0xe
	.uleb128 0x10
	.byte	0x86
	.uleb128 0x2
	.byte	0x4
	.long	.LCFI90-.LCFI89
	.byte	0xd
	.uleb128 0x6
	.align 8
.LEFDE55:
.LSFDE57:
	.long	.LEFDE57-.LASFDE57
.LASFDE57:
	.long	.LASFDE57-.Lframe1
	.quad	.LFB1995
	.quad	.LFE1995-.LFB1995
	.uleb128 0x8
	.quad	.LLSDA1995
	.byte	0x4
	.long	.LCFI92-.LFB1995
	.byte	0xe
	.uleb128 0x10
	.byte	0x86
	.uleb128 0x2
	.byte	0x4
	.long	.LCFI93-.LCFI92
	.byte	0xd
	.uleb128 0x6
	.byte	0x4
	.long	.LCFI95-.LCFI93
	.byte	0x83
	.uleb128 0x3
	.align 8
.LEFDE57:
.LSFDE59:
	.long	.LEFDE59-.LASFDE59
.LASFDE59:
	.long	.LASFDE59-.Lframe1
	.quad	.LFB1996
	.quad	.LFE1996-.LFB1996
	.uleb128 0x8
	.quad	0x0
	.byte	0x4
	.long	.LCFI96-.LFB1996
	.byte	0xe
	.uleb128 0x10
	.byte	0x86
	.uleb128 0x2
	.byte	0x4
	.long	.LCFI97-.LCFI96
	.byte	0xd
	.uleb128 0x6
	.align 8
.LEFDE59:
.LSFDE61:
	.long	.LEFDE61-.LASFDE61
.LASFDE61:
	.long	.LASFDE61-.Lframe1
	.quad	.LFB1997
	.quad	.LFE1997-.LFB1997
	.uleb128 0x8
	.quad	0x0
	.byte	0x4
	.long	.LCFI99-.LFB1997
	.byte	0xe
	.uleb128 0x10
	.byte	0x86
	.uleb128 0x2
	.byte	0x4
	.long	.LCFI100-.LCFI99
	.byte	0xd
	.uleb128 0x6
	.align 8
.LEFDE61:
.LSFDE63:
	.long	.LEFDE63-.LASFDE63
.LASFDE63:
	.long	.LASFDE63-.Lframe1
	.quad	.LFB1998
	.quad	.LFE1998-.LFB1998
	.uleb128 0x8
	.quad	0x0
	.byte	0x4
	.long	.LCFI102-.LFB1998
	.byte	0xe
	.uleb128 0x10
	.byte	0x86
	.uleb128 0x2
	.byte	0x4
	.long	.LCFI103-.LCFI102
	.byte	0xd
	.uleb128 0x6
	.align 8
.LEFDE63:
.LSFDE65:
	.long	.LEFDE65-.LASFDE65
.LASFDE65:
	.long	.LASFDE65-.Lframe1
	.quad	.LFB1999
	.quad	.LFE1999-.LFB1999
	.uleb128 0x8
	.quad	0x0
	.byte	0x4
	.long	.LCFI105-.LFB1999
	.byte	0xe
	.uleb128 0x10
	.byte	0x86
	.uleb128 0x2
	.byte	0x4
	.long	.LCFI106-.LCFI105
	.byte	0xd
	.uleb128 0x6
	.align 8
.LEFDE65:
.LSFDE67:
	.long	.LEFDE67-.LASFDE67
.LASFDE67:
	.long	.LASFDE67-.Lframe1
	.quad	.LFB2000
	.quad	.LFE2000-.LFB2000
	.uleb128 0x8
	.quad	0x0
	.byte	0x4
	.long	.LCFI107-.LFB2000
	.byte	0xe
	.uleb128 0x10
	.byte	0x86
	.uleb128 0x2
	.byte	0x4
	.long	.LCFI108-.LCFI107
	.byte	0xd
	.uleb128 0x6
	.align 8
.LEFDE67:
.LSFDE69:
	.long	.LEFDE69-.LASFDE69
.LASFDE69:
	.long	.LASFDE69-.Lframe1
	.quad	.LFB2001
	.quad	.LFE2001-.LFB2001
	.uleb128 0x8
	.quad	0x0
	.byte	0x4
	.long	.LCFI109-.LFB2001
	.byte	0xe
	.uleb128 0x10
	.byte	0x86
	.uleb128 0x2
	.byte	0x4
	.long	.LCFI110-.LCFI109
	.byte	0xd
	.uleb128 0x6
	.align 8
.LEFDE69:
.LSFDE71:
	.long	.LEFDE71-.LASFDE71
.LASFDE71:
	.long	.LASFDE71-.Lframe1
	.quad	.LFB2002
	.quad	.LFE2002-.LFB2002
	.uleb128 0x8
	.quad	.LLSDA2002
	.byte	0x4
	.long	.LCFI112-.LFB2002
	.byte	0xe
	.uleb128 0x10
	.byte	0x86
	.uleb128 0x2
	.byte	0x4
	.long	.LCFI113-.LCFI112
	.byte	0xd
	.uleb128 0x6
	.byte	0x4
	.long	.LCFI115-.LCFI113
	.byte	0x83
	.uleb128 0x3
	.align 8
.LEFDE71:
.LSFDE73:
	.long	.LEFDE73-.LASFDE73
.LASFDE73:
	.long	.LASFDE73-.Lframe1
	.quad	.LFB2005
	.quad	.LFE2005-.LFB2005
	.uleb128 0x8
	.quad	0x0
	.byte	0x4
	.long	.LCFI116-.LFB2005
	.byte	0xe
	.uleb128 0x10
	.byte	0x86
	.uleb128 0x2
	.byte	0x4
	.long	.LCFI117-.LCFI116
	.byte	0xd
	.uleb128 0x6
	.align 8
.LEFDE73:
.LSFDE75:
	.long	.LEFDE75-.LASFDE75
.LASFDE75:
	.long	.LASFDE75-.Lframe1
	.quad	.LFB2030
	.quad	.LFE2030-.LFB2030
	.uleb128 0x8
	.quad	0x0
	.byte	0x4
	.long	.LCFI119-.LFB2030
	.byte	0xe
	.uleb128 0x10
	.byte	0x86
	.uleb128 0x2
	.byte	0x4
	.long	.LCFI120-.LCFI119
	.byte	0xd
	.uleb128 0x6
	.align 8
.LEFDE75:
.LSFDE77:
	.long	.LEFDE77-.LASFDE77
.LASFDE77:
	.long	.LASFDE77-.Lframe1
	.quad	.LFB2033
	.quad	.LFE2033-.LFB2033
	.uleb128 0x8
	.quad	0x0
	.byte	0x4
	.long	.LCFI122-.LFB2033
	.byte	0xe
	.uleb128 0x10
	.byte	0x86
	.uleb128 0x2
	.byte	0x4
	.long	.LCFI123-.LCFI122
	.byte	0xd
	.uleb128 0x6
	.align 8
.LEFDE77:
.LSFDE79:
	.long	.LEFDE79-.LASFDE79
.LASFDE79:
	.long	.LASFDE79-.Lframe1
	.quad	.LFB2039
	.quad	.LFE2039-.LFB2039
	.uleb128 0x8
	.quad	.LLSDA2039
	.byte	0x4
	.long	.LCFI125-.LFB2039
	.byte	0xe
	.uleb128 0x10
	.byte	0x86
	.uleb128 0x2
	.byte	0x4
	.long	.LCFI126-.LCFI125
	.byte	0xd
	.uleb128 0x6
	.byte	0x4
	.long	.LCFI128-.LCFI126
	.byte	0x83
	.uleb128 0x3
	.align 8
.LEFDE79:
.LSFDE81:
	.long	.LEFDE81-.LASFDE81
.LASFDE81:
	.long	.LASFDE81-.Lframe1
	.quad	.LFB2041
	.quad	.LFE2041-.LFB2041
	.uleb128 0x8
	.quad	0x0
	.byte	0x4
	.long	.LCFI129-.LFB2041
	.byte	0xe
	.uleb128 0x10
	.byte	0x86
	.uleb128 0x2
	.byte	0x4
	.long	.LCFI130-.LCFI129
	.byte	0xd
	.uleb128 0x6
	.align 8
.LEFDE81:
.LSFDE83:
	.long	.LEFDE83-.LASFDE83
.LASFDE83:
	.long	.LASFDE83-.Lframe1
	.quad	.LFB2042
	.quad	.LFE2042-.LFB2042
	.uleb128 0x8
	.quad	0x0
	.byte	0x4
	.long	.LCFI132-.LFB2042
	.byte	0xe
	.uleb128 0x10
	.byte	0x86
	.uleb128 0x2
	.byte	0x4
	.long	.LCFI133-.LCFI132
	.byte	0xd
	.uleb128 0x6
	.align 8
.LEFDE83:
.LSFDE85:
	.long	.LEFDE85-.LASFDE85
.LASFDE85:
	.long	.LASFDE85-.Lframe1
	.quad	.LFB2043
	.quad	.LFE2043-.LFB2043
	.uleb128 0x8
	.quad	0x0
	.byte	0x4
	.long	.LCFI135-.LFB2043
	.byte	0xe
	.uleb128 0x10
	.byte	0x86
	.uleb128 0x2
	.byte	0x4
	.long	.LCFI136-.LCFI135
	.byte	0xd
	.uleb128 0x6
	.align 8
.LEFDE85:
.LSFDE87:
	.long	.LEFDE87-.LASFDE87
.LASFDE87:
	.long	.LASFDE87-.Lframe1
	.quad	.LFB2044
	.quad	.LFE2044-.LFB2044
	.uleb128 0x8
	.quad	0x0
	.byte	0x4
	.long	.LCFI138-.LFB2044
	.byte	0xe
	.uleb128 0x10
	.byte	0x86
	.uleb128 0x2
	.byte	0x4
	.long	.LCFI139-.LCFI138
	.byte	0xd
	.uleb128 0x6
	.align 8
.LEFDE87:
.LSFDE89:
	.long	.LEFDE89-.LASFDE89
.LASFDE89:
	.long	.LASFDE89-.Lframe1
	.quad	.LFB2047
	.quad	.LFE2047-.LFB2047
	.uleb128 0x8
	.quad	0x0
	.byte	0x4
	.long	.LCFI140-.LFB2047
	.byte	0xe
	.uleb128 0x10
	.byte	0x86
	.uleb128 0x2
	.byte	0x4
	.long	.LCFI141-.LCFI140
	.byte	0xd
	.uleb128 0x6
	.align 8
.LEFDE89:
.LSFDE91:
	.long	.LEFDE91-.LASFDE91
.LASFDE91:
	.long	.LASFDE91-.Lframe1
	.quad	.LFB2048
	.quad	.LFE2048-.LFB2048
	.uleb128 0x8
	.quad	0x0
	.byte	0x4
	.long	.LCFI142-.LFB2048
	.byte	0xe
	.uleb128 0x10
	.byte	0x86
	.uleb128 0x2
	.byte	0x4
	.long	.LCFI143-.LCFI142
	.byte	0xd
	.uleb128 0x6
	.align 8
.LEFDE91:
.LSFDE93:
	.long	.LEFDE93-.LASFDE93
.LASFDE93:
	.long	.LASFDE93-.Lframe1
	.quad	.LFB2049
	.quad	.LFE2049-.LFB2049
	.uleb128 0x8
	.quad	0x0
	.byte	0x4
	.long	.LCFI145-.LFB2049
	.byte	0xe
	.uleb128 0x10
	.byte	0x86
	.uleb128 0x2
	.byte	0x4
	.long	.LCFI146-.LCFI145
	.byte	0xd
	.uleb128 0x6
	.align 8
.LEFDE93:
.LSFDE95:
	.long	.LEFDE95-.LASFDE95
.LASFDE95:
	.long	.LASFDE95-.Lframe1
	.quad	.LFB2050
	.quad	.LFE2050-.LFB2050
	.uleb128 0x8
	.quad	0x0
	.byte	0x4
	.long	.LCFI148-.LFB2050
	.byte	0xe
	.uleb128 0x10
	.byte	0x86
	.uleb128 0x2
	.byte	0x4
	.long	.LCFI149-.LCFI148
	.byte	0xd
	.uleb128 0x6
	.byte	0x4
	.long	.LCFI151-.LCFI149
	.byte	0x83
	.uleb128 0x3
	.align 8
.LEFDE95:
.LSFDE97:
	.long	.LEFDE97-.LASFDE97
.LASFDE97:
	.long	.LASFDE97-.Lframe1
	.quad	.LFB2051
	.quad	.LFE2051-.LFB2051
	.uleb128 0x8
	.quad	0x0
	.byte	0x4
	.long	.LCFI152-.LFB2051
	.byte	0xe
	.uleb128 0x10
	.byte	0x86
	.uleb128 0x2
	.byte	0x4
	.long	.LCFI153-.LCFI152
	.byte	0xd
	.uleb128 0x6
	.align 8
.LEFDE97:
.LSFDE99:
	.long	.LEFDE99-.LASFDE99
.LASFDE99:
	.long	.LASFDE99-.Lframe1
	.quad	.LFB2052
	.quad	.LFE2052-.LFB2052
	.uleb128 0x8
	.quad	0x0
	.byte	0x4
	.long	.LCFI155-.LFB2052
	.byte	0xe
	.uleb128 0x10
	.byte	0x86
	.uleb128 0x2
	.byte	0x4
	.long	.LCFI156-.LCFI155
	.byte	0xd
	.uleb128 0x6
	.align 8
.LEFDE99:
.LSFDE101:
	.long	.LEFDE101-.LASFDE101
.LASFDE101:
	.long	.LASFDE101-.Lframe1
	.quad	.LFB2053
	.quad	.LFE2053-.LFB2053
	.uleb128 0x8
	.quad	0x0
	.byte	0x4
	.long	.LCFI158-.LFB2053
	.byte	0xe
	.uleb128 0x10
	.byte	0x86
	.uleb128 0x2
	.byte	0x4
	.long	.LCFI159-.LCFI158
	.byte	0xd
	.uleb128 0x6
	.align 8
.LEFDE101:
.LSFDE103:
	.long	.LEFDE103-.LASFDE103
.LASFDE103:
	.long	.LASFDE103-.Lframe1
	.quad	.LFB2054
	.quad	.LFE2054-.LFB2054
	.uleb128 0x8
	.quad	0x0
	.byte	0x4
	.long	.LCFI160-.LFB2054
	.byte	0xe
	.uleb128 0x10
	.byte	0x86
	.uleb128 0x2
	.byte	0x4
	.long	.LCFI161-.LCFI160
	.byte	0xd
	.uleb128 0x6
	.align 8
.LEFDE103:
.LSFDE105:
	.long	.LEFDE105-.LASFDE105
.LASFDE105:
	.long	.LASFDE105-.Lframe1
	.quad	.LFB2055
	.quad	.LFE2055-.LFB2055
	.uleb128 0x8
	.quad	0x0
	.byte	0x4
	.long	.LCFI163-.LFB2055
	.byte	0xe
	.uleb128 0x10
	.byte	0x86
	.uleb128 0x2
	.byte	0x4
	.long	.LCFI164-.LCFI163
	.byte	0xd
	.uleb128 0x6
	.align 8
.LEFDE105:
.LSFDE107:
	.long	.LEFDE107-.LASFDE107
.LASFDE107:
	.long	.LASFDE107-.Lframe1
	.quad	.LFB2058
	.quad	.LFE2058-.LFB2058
	.uleb128 0x8
	.quad	0x0
	.byte	0x4
	.long	.LCFI165-.LFB2058
	.byte	0xe
	.uleb128 0x10
	.byte	0x86
	.uleb128 0x2
	.byte	0x4
	.long	.LCFI166-.LCFI165
	.byte	0xd
	.uleb128 0x6
	.align 8
.LEFDE107:
.LSFDE109:
	.long	.LEFDE109-.LASFDE109
.LASFDE109:
	.long	.LASFDE109-.Lframe1
	.quad	.LFB2059
	.quad	.LFE2059-.LFB2059
	.uleb128 0x8
	.quad	0x0
	.byte	0x4
	.long	.LCFI168-.LFB2059
	.byte	0xe
	.uleb128 0x10
	.byte	0x86
	.uleb128 0x2
	.byte	0x4
	.long	.LCFI169-.LCFI168
	.byte	0xd
	.uleb128 0x6
	.align 8
.LEFDE109:
.LSFDE111:
	.long	.LEFDE111-.LASFDE111
.LASFDE111:
	.long	.LASFDE111-.Lframe1
	.quad	.LFB2062
	.quad	.LFE2062-.LFB2062
	.uleb128 0x8
	.quad	0x0
	.byte	0x4
	.long	.LCFI171-.LFB2062
	.byte	0xe
	.uleb128 0x10
	.byte	0x86
	.uleb128 0x2
	.byte	0x4
	.long	.LCFI172-.LCFI171
	.byte	0xd
	.uleb128 0x6
	.align 8
.LEFDE111:
.LSFDE113:
	.long	.LEFDE113-.LASFDE113
.LASFDE113:
	.long	.LASFDE113-.Lframe1
	.quad	.LFB2065
	.quad	.LFE2065-.LFB2065
	.uleb128 0x8
	.quad	0x0
	.byte	0x4
	.long	.LCFI173-.LFB2065
	.byte	0xe
	.uleb128 0x10
	.byte	0x86
	.uleb128 0x2
	.byte	0x4
	.long	.LCFI174-.LCFI173
	.byte	0xd
	.uleb128 0x6
	.align 8
.LEFDE113:
.LSFDE115:
	.long	.LEFDE115-.LASFDE115
.LASFDE115:
	.long	.LASFDE115-.Lframe1
	.quad	.LFB2072
	.quad	.LFE2072-.LFB2072
	.uleb128 0x8
	.quad	0x0
	.byte	0x4
	.long	.LCFI175-.LFB2072
	.byte	0xe
	.uleb128 0x10
	.byte	0x86
	.uleb128 0x2
	.byte	0x4
	.long	.LCFI176-.LCFI175
	.byte	0xd
	.uleb128 0x6
	.align 8
.LEFDE115:
.LSFDE117:
	.long	.LEFDE117-.LASFDE117
.LASFDE117:
	.long	.LASFDE117-.Lframe1
	.quad	.LFB2075
	.quad	.LFE2075-.LFB2075
	.uleb128 0x8
	.quad	0x0
	.byte	0x4
	.long	.LCFI178-.LFB2075
	.byte	0xe
	.uleb128 0x10
	.byte	0x86
	.uleb128 0x2
	.byte	0x4
	.long	.LCFI179-.LCFI178
	.byte	0xd
	.uleb128 0x6
	.align 8
.LEFDE117:
.LSFDE119:
	.long	.LEFDE119-.LASFDE119
.LASFDE119:
	.long	.LASFDE119-.Lframe1
	.quad	.LFB2077
	.quad	.LFE2077-.LFB2077
	.uleb128 0x8
	.quad	0x0
	.byte	0x4
	.long	.LCFI181-.LFB2077
	.byte	0xe
	.uleb128 0x10
	.byte	0x86
	.uleb128 0x2
	.byte	0x4
	.long	.LCFI182-.LCFI181
	.byte	0xd
	.uleb128 0x6
	.align 8
.LEFDE119:
.LSFDE121:
	.long	.LEFDE121-.LASFDE121
.LASFDE121:
	.long	.LASFDE121-.Lframe1
	.quad	.LFB2079
	.quad	.LFE2079-.LFB2079
	.uleb128 0x8
	.quad	0x0
	.byte	0x4
	.long	.LCFI183-.LFB2079
	.byte	0xe
	.uleb128 0x10
	.byte	0x86
	.uleb128 0x2
	.byte	0x4
	.long	.LCFI184-.LCFI183
	.byte	0xd
	.uleb128 0x6
	.align 8
.LEFDE121:
.LSFDE123:
	.long	.LEFDE123-.LASFDE123
.LASFDE123:
	.long	.LASFDE123-.Lframe1
	.quad	.LFB2080
	.quad	.LFE2080-.LFB2080
	.uleb128 0x8
	.quad	0x0
	.byte	0x4
	.long	.LCFI185-.LFB2080
	.byte	0xe
	.uleb128 0x10
	.byte	0x86
	.uleb128 0x2
	.byte	0x4
	.long	.LCFI186-.LCFI185
	.byte	0xd
	.uleb128 0x6
	.align 8
.LEFDE123:
.LSFDE125:
	.long	.LEFDE125-.LASFDE125
.LASFDE125:
	.long	.LASFDE125-.Lframe1
	.quad	.LFB2081
	.quad	.LFE2081-.LFB2081
	.uleb128 0x8
	.quad	0x0
	.byte	0x4
	.long	.LCFI187-.LFB2081
	.byte	0xe
	.uleb128 0x10
	.byte	0x86
	.uleb128 0x2
	.byte	0x4
	.long	.LCFI188-.LCFI187
	.byte	0xd
	.uleb128 0x6
	.align 8
.LEFDE125:
.LSFDE127:
	.long	.LEFDE127-.LASFDE127
.LASFDE127:
	.long	.LASFDE127-.Lframe1
	.quad	.LFB2085
	.quad	.LFE2085-.LFB2085
	.uleb128 0x8
	.quad	0x0
	.byte	0x4
	.long	.LCFI190-.LFB2085
	.byte	0xe
	.uleb128 0x10
	.byte	0x86
	.uleb128 0x2
	.byte	0x4
	.long	.LCFI191-.LCFI190
	.byte	0xd
	.uleb128 0x6
	.align 8
.LEFDE127:
.LSFDE129:
	.long	.LEFDE129-.LASFDE129
.LASFDE129:
	.long	.LASFDE129-.Lframe1
	.quad	.LFB2086
	.quad	.LFE2086-.LFB2086
	.uleb128 0x8
	.quad	0x0
	.byte	0x4
	.long	.LCFI192-.LFB2086
	.byte	0xe
	.uleb128 0x10
	.byte	0x86
	.uleb128 0x2
	.byte	0x4
	.long	.LCFI193-.LCFI192
	.byte	0xd
	.uleb128 0x6
	.align 8
.LEFDE129:
.LSFDE131:
	.long	.LEFDE131-.LASFDE131
.LASFDE131:
	.long	.LASFDE131-.Lframe1
	.quad	.LFB2089
	.quad	.LFE2089-.LFB2089
	.uleb128 0x8
	.quad	0x0
	.byte	0x4
	.long	.LCFI195-.LFB2089
	.byte	0xe
	.uleb128 0x10
	.byte	0x86
	.uleb128 0x2
	.byte	0x4
	.long	.LCFI196-.LCFI195
	.byte	0xd
	.uleb128 0x6
	.align 8
.LEFDE131:
.LSFDE133:
	.long	.LEFDE133-.LASFDE133
.LASFDE133:
	.long	.LASFDE133-.Lframe1
	.quad	.LFB2090
	.quad	.LFE2090-.LFB2090
	.uleb128 0x8
	.quad	0x0
	.byte	0x4
	.long	.LCFI197-.LFB2090
	.byte	0xe
	.uleb128 0x10
	.byte	0x86
	.uleb128 0x2
	.byte	0x4
	.long	.LCFI198-.LCFI197
	.byte	0xd
	.uleb128 0x6
	.align 8
.LEFDE133:
.LSFDE135:
	.long	.LEFDE135-.LASFDE135
.LASFDE135:
	.long	.LASFDE135-.Lframe1
	.quad	.LFB2091
	.quad	.LFE2091-.LFB2091
	.uleb128 0x8
	.quad	0x0
	.byte	0x4
	.long	.LCFI200-.LFB2091
	.byte	0xe
	.uleb128 0x10
	.byte	0x86
	.uleb128 0x2
	.byte	0x4
	.long	.LCFI201-.LCFI200
	.byte	0xd
	.uleb128 0x6
	.align 8
.LEFDE135:
.LSFDE137:
	.long	.LEFDE137-.LASFDE137
.LASFDE137:
	.long	.LASFDE137-.Lframe1
	.quad	.LFB2092
	.quad	.LFE2092-.LFB2092
	.uleb128 0x8
	.quad	0x0
	.byte	0x4
	.long	.LCFI202-.LFB2092
	.byte	0xe
	.uleb128 0x10
	.byte	0x86
	.uleb128 0x2
	.byte	0x4
	.long	.LCFI203-.LCFI202
	.byte	0xd
	.uleb128 0x6
	.align 8
.LEFDE137:
.LSFDE139:
	.long	.LEFDE139-.LASFDE139
.LASFDE139:
	.long	.LASFDE139-.Lframe1
	.quad	.LFB2093
	.quad	.LFE2093-.LFB2093
	.uleb128 0x8
	.quad	0x0
	.byte	0x4
	.long	.LCFI204-.LFB2093
	.byte	0xe
	.uleb128 0x10
	.byte	0x86
	.uleb128 0x2
	.byte	0x4
	.long	.LCFI205-.LCFI204
	.byte	0xd
	.uleb128 0x6
	.align 8
.LEFDE139:
.LSFDE141:
	.long	.LEFDE141-.LASFDE141
.LASFDE141:
	.long	.LASFDE141-.Lframe1
	.quad	.LFB2094
	.quad	.LFE2094-.LFB2094
	.uleb128 0x8
	.quad	0x0
	.byte	0x4
	.long	.LCFI206-.LFB2094
	.byte	0xe
	.uleb128 0x10
	.byte	0x86
	.uleb128 0x2
	.byte	0x4
	.long	.LCFI207-.LCFI206
	.byte	0xd
	.uleb128 0x6
	.align 8
.LEFDE141:
.LSFDE143:
	.long	.LEFDE143-.LASFDE143
.LASFDE143:
	.long	.LASFDE143-.Lframe1
	.quad	.LFB2095
	.quad	.LFE2095-.LFB2095
	.uleb128 0x8
	.quad	0x0
	.byte	0x4
	.long	.LCFI209-.LFB2095
	.byte	0xe
	.uleb128 0x10
	.byte	0x86
	.uleb128 0x2
	.byte	0x4
	.long	.LCFI210-.LCFI209
	.byte	0xd
	.uleb128 0x6
	.align 8
.LEFDE143:
.LSFDE145:
	.long	.LEFDE145-.LASFDE145
.LASFDE145:
	.long	.LASFDE145-.Lframe1
	.quad	.LFB2096
	.quad	.LFE2096-.LFB2096
	.uleb128 0x8
	.quad	0x0
	.byte	0x4
	.long	.LCFI211-.LFB2096
	.byte	0xe
	.uleb128 0x10
	.byte	0x86
	.uleb128 0x2
	.byte	0x4
	.long	.LCFI212-.LCFI211
	.byte	0xd
	.uleb128 0x6
	.align 8
.LEFDE145:
.LSFDE147:
	.long	.LEFDE147-.LASFDE147
.LASFDE147:
	.long	.LASFDE147-.Lframe1
	.quad	.LFB2097
	.quad	.LFE2097-.LFB2097
	.uleb128 0x8
	.quad	0x0
	.byte	0x4
	.long	.LCFI214-.LFB2097
	.byte	0xe
	.uleb128 0x10
	.byte	0x86
	.uleb128 0x2
	.byte	0x4
	.long	.LCFI215-.LCFI214
	.byte	0xd
	.uleb128 0x6
	.byte	0x4
	.long	.LCFI217-.LCFI215
	.byte	0x83
	.uleb128 0x3
	.align 8
.LEFDE147:
.LSFDE149:
	.long	.LEFDE149-.LASFDE149
.LASFDE149:
	.long	.LASFDE149-.Lframe1
	.quad	.LFB2099
	.quad	.LFE2099-.LFB2099
	.uleb128 0x8
	.quad	0x0
	.byte	0x4
	.long	.LCFI218-.LFB2099
	.byte	0xe
	.uleb128 0x10
	.byte	0x86
	.uleb128 0x2
	.byte	0x4
	.long	.LCFI219-.LCFI218
	.byte	0xd
	.uleb128 0x6
	.align 8
.LEFDE149:
.LSFDE151:
	.long	.LEFDE151-.LASFDE151
.LASFDE151:
	.long	.LASFDE151-.Lframe1
	.quad	.LFB2102
	.quad	.LFE2102-.LFB2102
	.uleb128 0x8
	.quad	0x0
	.byte	0x4
	.long	.LCFI220-.LFB2102
	.byte	0xe
	.uleb128 0x10
	.byte	0x86
	.uleb128 0x2
	.byte	0x4
	.long	.LCFI221-.LCFI220
	.byte	0xd
	.uleb128 0x6
	.align 8
.LEFDE151:
.LSFDE153:
	.long	.LEFDE153-.LASFDE153
.LASFDE153:
	.long	.LASFDE153-.Lframe1
	.quad	.LFB2104
	.quad	.LFE2104-.LFB2104
	.uleb128 0x8
	.quad	0x0
	.byte	0x4
	.long	.LCFI223-.LFB2104
	.byte	0xe
	.uleb128 0x10
	.byte	0x86
	.uleb128 0x2
	.byte	0x4
	.long	.LCFI224-.LCFI223
	.byte	0xd
	.uleb128 0x6
	.align 8
.LEFDE153:
.LSFDE155:
	.long	.LEFDE155-.LASFDE155
.LASFDE155:
	.long	.LASFDE155-.Lframe1
	.quad	.LFB2105
	.quad	.LFE2105-.LFB2105
	.uleb128 0x8
	.quad	0x0
	.byte	0x4
	.long	.LCFI226-.LFB2105
	.byte	0xe
	.uleb128 0x10
	.byte	0x86
	.uleb128 0x2
	.byte	0x4
	.long	.LCFI227-.LCFI226
	.byte	0xd
	.uleb128 0x6
	.align 8
.LEFDE155:
.LSFDE157:
	.long	.LEFDE157-.LASFDE157
.LASFDE157:
	.long	.LASFDE157-.Lframe1
	.quad	.LFB2115
	.quad	.LFE2115-.LFB2115
	.uleb128 0x8
	.quad	0x0
	.byte	0x4
	.long	.LCFI229-.LFB2115
	.byte	0xe
	.uleb128 0x10
	.byte	0x86
	.uleb128 0x2
	.byte	0x4
	.long	.LCFI230-.LCFI229
	.byte	0xd
	.uleb128 0x6
	.align 8
.LEFDE157:
.LSFDE159:
	.long	.LEFDE159-.LASFDE159
.LASFDE159:
	.long	.LASFDE159-.Lframe1
	.quad	.LFB2116
	.quad	.LFE2116-.LFB2116
	.uleb128 0x8
	.quad	0x0
	.byte	0x4
	.long	.LCFI231-.LFB2116
	.byte	0xe
	.uleb128 0x10
	.byte	0x86
	.uleb128 0x2
	.byte	0x4
	.long	.LCFI232-.LCFI231
	.byte	0xd
	.uleb128 0x6
	.align 8
.LEFDE159:
.LSFDE161:
	.long	.LEFDE161-.LASFDE161
.LASFDE161:
	.long	.LASFDE161-.Lframe1
	.quad	.LFB2117
	.quad	.LFE2117-.LFB2117
	.uleb128 0x8
	.quad	0x0
	.byte	0x4
	.long	.LCFI233-.LFB2117
	.byte	0xe
	.uleb128 0x10
	.byte	0x86
	.uleb128 0x2
	.byte	0x4
	.long	.LCFI234-.LCFI233
	.byte	0xd
	.uleb128 0x6
	.align 8
.LEFDE161:
.LSFDE163:
	.long	.LEFDE163-.LASFDE163
.LASFDE163:
	.long	.LASFDE163-.Lframe1
	.quad	.LFB2119
	.quad	.LFE2119-.LFB2119
	.uleb128 0x8
	.quad	0x0
	.byte	0x4
	.long	.LCFI235-.LFB2119
	.byte	0xe
	.uleb128 0x10
	.byte	0x86
	.uleb128 0x2
	.byte	0x4
	.long	.LCFI236-.LCFI235
	.byte	0xd
	.uleb128 0x6
	.byte	0x4
	.long	.LCFI238-.LCFI236
	.byte	0x83
	.uleb128 0x3
	.align 8
.LEFDE163:
.LSFDE165:
	.long	.LEFDE165-.LASFDE165
.LASFDE165:
	.long	.LASFDE165-.Lframe1
	.quad	.LFB2120
	.quad	.LFE2120-.LFB2120
	.uleb128 0x8
	.quad	0x0
	.byte	0x4
	.long	.LCFI239-.LFB2120
	.byte	0xe
	.uleb128 0x10
	.byte	0x86
	.uleb128 0x2
	.byte	0x4
	.long	.LCFI240-.LCFI239
	.byte	0xd
	.uleb128 0x6
	.byte	0x4
	.long	.LCFI242-.LCFI240
	.byte	0x83
	.uleb128 0x3
	.align 8
.LEFDE165:
.LSFDE167:
	.long	.LEFDE167-.LASFDE167
.LASFDE167:
	.long	.LASFDE167-.Lframe1
	.quad	.LFB2112
	.quad	.LFE2112-.LFB2112
	.uleb128 0x8
	.quad	0x0
	.byte	0x4
	.long	.LCFI243-.LFB2112
	.byte	0xe
	.uleb128 0x10
	.byte	0x86
	.uleb128 0x2
	.byte	0x4
	.long	.LCFI244-.LCFI243
	.byte	0xd
	.uleb128 0x6
	.align 8
.LEFDE167:
.LSFDE169:
	.long	.LEFDE169-.LASFDE169
.LASFDE169:
	.long	.LASFDE169-.Lframe1
	.quad	.LFB2121
	.quad	.LFE2121-.LFB2121
	.uleb128 0x8
	.quad	0x0
	.byte	0x4
	.long	.LCFI246-.LFB2121
	.byte	0xe
	.uleb128 0x10
	.byte	0x86
	.uleb128 0x2
	.byte	0x4
	.long	.LCFI247-.LCFI246
	.byte	0xd
	.uleb128 0x6
	.byte	0x4
	.long	.LCFI249-.LCFI247
	.byte	0x83
	.uleb128 0x3
	.align 8
.LEFDE169:
.LSFDE171:
	.long	.LEFDE171-.LASFDE171
.LASFDE171:
	.long	.LASFDE171-.Lframe1
	.quad	.LFB2123
	.quad	.LFE2123-.LFB2123
	.uleb128 0x8
	.quad	0x0
	.byte	0x4
	.long	.LCFI250-.LFB2123
	.byte	0xe
	.uleb128 0x10
	.byte	0x86
	.uleb128 0x2
	.byte	0x4
	.long	.LCFI251-.LCFI250
	.byte	0xd
	.uleb128 0x6
	.align 8
.LEFDE171:
.LSFDE173:
	.long	.LEFDE173-.LASFDE173
.LASFDE173:
	.long	.LASFDE173-.Lframe1
	.quad	.LFB2125
	.quad	.LFE2125-.LFB2125
	.uleb128 0x8
	.quad	0x0
	.byte	0x4
	.long	.LCFI252-.LFB2125
	.byte	0xe
	.uleb128 0x10
	.byte	0x86
	.uleb128 0x2
	.byte	0x4
	.long	.LCFI253-.LCFI252
	.byte	0xd
	.uleb128 0x6
	.align 8
.LEFDE173:
.LSFDE175:
	.long	.LEFDE175-.LASFDE175
.LASFDE175:
	.long	.LASFDE175-.Lframe1
	.quad	.LFB2128
	.quad	.LFE2128-.LFB2128
	.uleb128 0x8
	.quad	.LLSDA2128
	.byte	0x4
	.long	.LCFI255-.LFB2128
	.byte	0xe
	.uleb128 0x10
	.byte	0x86
	.uleb128 0x2
	.byte	0x4
	.long	.LCFI256-.LCFI255
	.byte	0xd
	.uleb128 0x6
	.byte	0x4
	.long	.LCFI258-.LCFI256
	.byte	0x83
	.uleb128 0x3
	.align 8
.LEFDE175:
.LSFDE177:
	.long	.LEFDE177-.LASFDE177
.LASFDE177:
	.long	.LASFDE177-.Lframe1
	.quad	.LFB2131
	.quad	.LFE2131-.LFB2131
	.uleb128 0x8
	.quad	0x0
	.byte	0x4
	.long	.LCFI259-.LFB2131
	.byte	0xe
	.uleb128 0x10
	.byte	0x86
	.uleb128 0x2
	.byte	0x4
	.long	.LCFI260-.LCFI259
	.byte	0xd
	.uleb128 0x6
	.align 8
.LEFDE177:
.LSFDE179:
	.long	.LEFDE179-.LASFDE179
.LASFDE179:
	.long	.LASFDE179-.Lframe1
	.quad	.LFB2132
	.quad	.LFE2132-.LFB2132
	.uleb128 0x8
	.quad	0x0
	.byte	0x4
	.long	.LCFI261-.LFB2132
	.byte	0xe
	.uleb128 0x10
	.byte	0x86
	.uleb128 0x2
	.byte	0x4
	.long	.LCFI262-.LCFI261
	.byte	0xd
	.uleb128 0x6
	.align 8
.LEFDE179:
.LSFDE181:
	.long	.LEFDE181-.LASFDE181
.LASFDE181:
	.long	.LASFDE181-.Lframe1
	.quad	.LFB2133
	.quad	.LFE2133-.LFB2133
	.uleb128 0x8
	.quad	.LLSDA2133
	.byte	0x4
	.long	.LCFI264-.LFB2133
	.byte	0xe
	.uleb128 0x10
	.byte	0x86
	.uleb128 0x2
	.byte	0x4
	.long	.LCFI265-.LCFI264
	.byte	0xd
	.uleb128 0x6
	.byte	0x4
	.long	.LCFI267-.LCFI265
	.byte	0x83
	.uleb128 0x3
	.align 8
.LEFDE181:
.LSFDE183:
	.long	.LEFDE183-.LASFDE183
.LASFDE183:
	.long	.LASFDE183-.Lframe1
	.quad	.LFB57
	.quad	.LFE57-.LFB57
	.uleb128 0x8
	.quad	0x0
	.byte	0x4
	.long	.LCFI268-.LFB57
	.byte	0xe
	.uleb128 0x10
	.byte	0x86
	.uleb128 0x2
	.byte	0x4
	.long	.LCFI269-.LCFI268
	.byte	0xd
	.uleb128 0x6
	.align 8
.LEFDE183:
.LSFDE185:
	.long	.LEFDE185-.LASFDE185
.LASFDE185:
	.long	.LASFDE185-.Lframe1
	.quad	.LFB2008
	.quad	.LFE2008-.LFB2008
	.uleb128 0x8
	.quad	0x0
	.byte	0x4
	.long	.LCFI270-.LFB2008
	.byte	0xe
	.uleb128 0x10
	.byte	0x86
	.uleb128 0x2
	.byte	0x4
	.long	.LCFI271-.LCFI270
	.byte	0xd
	.uleb128 0x6
	.align 8
.LEFDE185:
.LSFDE187:
	.long	.LEFDE187-.LASFDE187
.LASFDE187:
	.long	.LASFDE187-.Lframe1
	.quad	.LFB55
	.quad	.LFE55-.LFB55
	.uleb128 0x8
	.quad	0x0
	.byte	0x4
	.long	.LCFI273-.LFB55
	.byte	0xe
	.uleb128 0x10
	.byte	0x86
	.uleb128 0x2
	.byte	0x4
	.long	.LCFI274-.LCFI273
	.byte	0xd
	.uleb128 0x6
	.align 8
.LEFDE187:
.LSFDE189:
	.long	.LEFDE189-.LASFDE189
.LASFDE189:
	.long	.LASFDE189-.Lframe1
	.quad	.LFB2134
	.quad	.LFE2134-.LFB2134
	.uleb128 0x8
	.quad	0x0
	.byte	0x4
	.long	.LCFI275-.LFB2134
	.byte	0xe
	.uleb128 0x10
	.byte	0x86
	.uleb128 0x2
	.byte	0x4
	.long	.LCFI276-.LCFI275
	.byte	0xd
	.uleb128 0x6
	.align 8
.LEFDE189:
.LSFDE191:
	.long	.LEFDE191-.LASFDE191
.LASFDE191:
	.long	.LASFDE191-.Lframe1
	.quad	.LFB2135
	.quad	.LFE2135-.LFB2135
	.uleb128 0x8
	.quad	0x0
	.byte	0x4
	.long	.LCFI278-.LFB2135
	.byte	0xe
	.uleb128 0x10
	.byte	0x86
	.uleb128 0x2
	.byte	0x4
	.long	.LCFI279-.LCFI278
	.byte	0xd
	.uleb128 0x6
	.align 8
.LEFDE191:
.LSFDE193:
	.long	.LEFDE193-.LASFDE193
.LASFDE193:
	.long	.LASFDE193-.Lframe1
	.quad	.LFB2147
	.quad	.LFE2147-.LFB2147
	.uleb128 0x8
	.quad	0x0
	.byte	0x4
	.long	.LCFI281-.LFB2147
	.byte	0xe
	.uleb128 0x10
	.byte	0x86
	.uleb128 0x2
	.byte	0x4
	.long	.LCFI282-.LCFI281
	.byte	0xd
	.uleb128 0x6
	.align 8
.LEFDE193:
.LSFDE195:
	.long	.LEFDE195-.LASFDE195
.LASFDE195:
	.long	.LASFDE195-.Lframe1
	.quad	.LFB2146
	.quad	.LFE2146-.LFB2146
	.uleb128 0x8
	.quad	.LLSDA2146
	.byte	0x4
	.long	.LCFI284-.LFB2146
	.byte	0xe
	.uleb128 0x10
	.byte	0x86
	.uleb128 0x2
	.byte	0x4
	.long	.LCFI285-.LCFI284
	.byte	0xd
	.uleb128 0x6
	.byte	0x4
	.long	.LCFI287-.LCFI285
	.byte	0x83
	.uleb128 0x3
	.align 8
.LEFDE195:
.LSFDE197:
	.long	.LEFDE197-.LASFDE197
.LASFDE197:
	.long	.LASFDE197-.Lframe1
	.quad	.LFB2143
	.quad	.LFE2143-.LFB2143
	.uleb128 0x8
	.quad	0x0
	.byte	0x4
	.long	.LCFI288-.LFB2143
	.byte	0xe
	.uleb128 0x10
	.byte	0x86
	.uleb128 0x2
	.byte	0x4
	.long	.LCFI289-.LCFI288
	.byte	0xd
	.uleb128 0x6
	.align 8
.LEFDE197:
.LSFDE199:
	.long	.LEFDE199-.LASFDE199
.LASFDE199:
	.long	.LASFDE199-.Lframe1
	.quad	.LFB2142
	.quad	.LFE2142-.LFB2142
	.uleb128 0x8
	.quad	0x0
	.byte	0x4
	.long	.LCFI291-.LFB2142
	.byte	0xe
	.uleb128 0x10
	.byte	0x86
	.uleb128 0x2
	.byte	0x4
	.long	.LCFI292-.LCFI291
	.byte	0xd
	.uleb128 0x6
	.align 8
.LEFDE199:
.LSFDE201:
	.long	.LEFDE201-.LASFDE201
.LASFDE201:
	.long	.LASFDE201-.Lframe1
	.quad	.LFB2140
	.quad	.LFE2140-.LFB2140
	.uleb128 0x8
	.quad	0x0
	.byte	0x4
	.long	.LCFI294-.LFB2140
	.byte	0xe
	.uleb128 0x10
	.byte	0x86
	.uleb128 0x2
	.byte	0x4
	.long	.LCFI295-.LCFI294
	.byte	0xd
	.uleb128 0x6
	.align 8
.LEFDE201:
.LSFDE203:
	.long	.LEFDE203-.LASFDE203
.LASFDE203:
	.long	.LASFDE203-.Lframe1
	.quad	.LFB2136
	.quad	.LFE2136-.LFB2136
	.uleb128 0x8
	.quad	0x0
	.byte	0x4
	.long	.LCFI297-.LFB2136
	.byte	0xe
	.uleb128 0x10
	.byte	0x86
	.uleb128 0x2
	.byte	0x4
	.long	.LCFI298-.LCFI297
	.byte	0xd
	.uleb128 0x6
	.align 8
.LEFDE203:
.LSFDE205:
	.long	.LEFDE205-.LASFDE205
.LASFDE205:
	.long	.LASFDE205-.Lframe1
	.quad	.LFB2153
	.quad	.LFE2153-.LFB2153
	.uleb128 0x8
	.quad	.LLSDA2153
	.byte	0x4
	.long	.LCFI300-.LFB2153
	.byte	0xe
	.uleb128 0x10
	.byte	0x86
	.uleb128 0x2
	.byte	0x4
	.long	.LCFI301-.LCFI300
	.byte	0xd
	.uleb128 0x6
	.byte	0x4
	.long	.LCFI303-.LCFI301
	.byte	0x83
	.uleb128 0x3
	.align 8
.LEFDE205:
.LSFDE207:
	.long	.LEFDE207-.LASFDE207
.LASFDE207:
	.long	.LASFDE207-.Lframe1
	.quad	.LFB2151
	.quad	.LFE2151-.LFB2151
	.uleb128 0x8
	.quad	0x0
	.byte	0x4
	.long	.LCFI304-.LFB2151
	.byte	0xe
	.uleb128 0x10
	.byte	0x86
	.uleb128 0x2
	.byte	0x4
	.long	.LCFI305-.LCFI304
	.byte	0xd
	.uleb128 0x6
	.align 8
.LEFDE207:
.LSFDE209:
	.long	.LEFDE209-.LASFDE209
.LASFDE209:
	.long	.LASFDE209-.Lframe1
	.quad	.LFB2155
	.quad	.LFE2155-.LFB2155
	.uleb128 0x8
	.quad	0x0
	.byte	0x4
	.long	.LCFI307-.LFB2155
	.byte	0xe
	.uleb128 0x10
	.byte	0x86
	.uleb128 0x2
	.byte	0x4
	.long	.LCFI308-.LCFI307
	.byte	0xd
	.uleb128 0x6
	.align 8
.LEFDE209:
.LSFDE211:
	.long	.LEFDE211-.LASFDE211
.LASFDE211:
	.long	.LASFDE211-.Lframe1
	.quad	.LFB2157
	.quad	.LFE2157-.LFB2157
	.uleb128 0x8
	.quad	0x0
	.byte	0x4
	.long	.LCFI310-.LFB2157
	.byte	0xe
	.uleb128 0x10
	.byte	0x86
	.uleb128 0x2
	.byte	0x4
	.long	.LCFI311-.LCFI310
	.byte	0xd
	.uleb128 0x6
	.align 8
.LEFDE211:
.LSFDE213:
	.long	.LEFDE213-.LASFDE213
.LASFDE213:
	.long	.LASFDE213-.Lframe1
	.quad	.LFB2158
	.quad	.LFE2158-.LFB2158
	.uleb128 0x8
	.quad	0x0
	.byte	0x4
	.long	.LCFI313-.LFB2158
	.byte	0xe
	.uleb128 0x10
	.byte	0x86
	.uleb128 0x2
	.byte	0x4
	.long	.LCFI314-.LCFI313
	.byte	0xd
	.uleb128 0x6
	.align 8
.LEFDE213:
.LSFDE215:
	.long	.LEFDE215-.LASFDE215
.LASFDE215:
	.long	.LASFDE215-.Lframe1
	.quad	.LFB2160
	.quad	.LFE2160-.LFB2160
	.uleb128 0x8
	.quad	0x0
	.byte	0x4
	.long	.LCFI315-.LFB2160
	.byte	0xe
	.uleb128 0x10
	.byte	0x86
	.uleb128 0x2
	.byte	0x4
	.long	.LCFI316-.LCFI315
	.byte	0xd
	.uleb128 0x6
	.align 8
.LEFDE215:
.LSFDE217:
	.long	.LEFDE217-.LASFDE217
.LASFDE217:
	.long	.LASFDE217-.Lframe1
	.quad	.LFB2162
	.quad	.LFE2162-.LFB2162
	.uleb128 0x8
	.quad	0x0
	.byte	0x4
	.long	.LCFI317-.LFB2162
	.byte	0xe
	.uleb128 0x10
	.byte	0x86
	.uleb128 0x2
	.byte	0x4
	.long	.LCFI318-.LCFI317
	.byte	0xd
	.uleb128 0x6
	.align 8
.LEFDE217:
.LSFDE219:
	.long	.LEFDE219-.LASFDE219
.LASFDE219:
	.long	.LASFDE219-.Lframe1
	.quad	.LFB2163
	.quad	.LFE2163-.LFB2163
	.uleb128 0x8
	.quad	0x0
	.byte	0x4
	.long	.LCFI319-.LFB2163
	.byte	0xe
	.uleb128 0x10
	.byte	0x86
	.uleb128 0x2
	.byte	0x4
	.long	.LCFI320-.LCFI319
	.byte	0xd
	.uleb128 0x6
	.align 8
.LEFDE219:
.LSFDE221:
	.long	.LEFDE221-.LASFDE221
.LASFDE221:
	.long	.LASFDE221-.Lframe1
	.quad	.LFB2164
	.quad	.LFE2164-.LFB2164
	.uleb128 0x8
	.quad	0x0
	.byte	0x4
	.long	.LCFI321-.LFB2164
	.byte	0xe
	.uleb128 0x10
	.byte	0x86
	.uleb128 0x2
	.byte	0x4
	.long	.LCFI322-.LCFI321
	.byte	0xd
	.uleb128 0x6
	.align 8
.LEFDE221:
.LSFDE223:
	.long	.LEFDE223-.LASFDE223
.LASFDE223:
	.long	.LASFDE223-.Lframe1
	.quad	.LFB2165
	.quad	.LFE2165-.LFB2165
	.uleb128 0x8
	.quad	0x0
	.byte	0x4
	.long	.LCFI324-.LFB2165
	.byte	0xe
	.uleb128 0x10
	.byte	0x86
	.uleb128 0x2
	.byte	0x4
	.long	.LCFI325-.LCFI324
	.byte	0xd
	.uleb128 0x6
	.align 8
.LEFDE223:
.LSFDE225:
	.long	.LEFDE225-.LASFDE225
.LASFDE225:
	.long	.LASFDE225-.Lframe1
	.quad	.LFB2166
	.quad	.LFE2166-.LFB2166
	.uleb128 0x8
	.quad	0x0
	.byte	0x4
	.long	.LCFI326-.LFB2166
	.byte	0xe
	.uleb128 0x10
	.byte	0x86
	.uleb128 0x2
	.byte	0x4
	.long	.LCFI327-.LCFI326
	.byte	0xd
	.uleb128 0x6
	.align 8
.LEFDE225:
.LSFDE227:
	.long	.LEFDE227-.LASFDE227
.LASFDE227:
	.long	.LASFDE227-.Lframe1
	.quad	.LFB2167
	.quad	.LFE2167-.LFB2167
	.uleb128 0x8
	.quad	0x0
	.byte	0x4
	.long	.LCFI329-.LFB2167
	.byte	0xe
	.uleb128 0x10
	.byte	0x86
	.uleb128 0x2
	.byte	0x4
	.long	.LCFI330-.LCFI329
	.byte	0xd
	.uleb128 0x6
	.align 8
.LEFDE227:
.LSFDE229:
	.long	.LEFDE229-.LASFDE229
.LASFDE229:
	.long	.LASFDE229-.Lframe1
	.quad	.LFB2168
	.quad	.LFE2168-.LFB2168
	.uleb128 0x8
	.quad	0x0
	.byte	0x4
	.long	.LCFI332-.LFB2168
	.byte	0xe
	.uleb128 0x10
	.byte	0x86
	.uleb128 0x2
	.byte	0x4
	.long	.LCFI333-.LCFI332
	.byte	0xd
	.uleb128 0x6
	.align 8
.LEFDE229:
	.section	.note.GNU-stack,"",@progbits
	.ident	"GCC: (GNU) 3.4.5 20051201 (Red Hat 3.4.5-2)"
